Component: Arm Compiler for Embedded 6.19 Tool: armlink [5e73cb00]

==============================================================================

Section Cross References

    startup_tm4c123.o(STACK) refers (Special) to heapauxi.o(.text) for __use_two_region_memory
    startup_tm4c123.o(HEAP) refers (Special) to heapauxi.o(.text) for __use_two_region_memory
    startup_tm4c123.o(RESET) refers (Special) to heapauxi.o(.text) for __use_two_region_memory
    startup_tm4c123.o(RESET) refers to startup_tm4c123.o(STACK) for __initial_sp
    startup_tm4c123.o(RESET) refers to startup_tm4c123.o(.text) for Reset_Handler
    startup_tm4c123.o(RESET) refers to main.o(.text) for SysTick_Handler
    startup_tm4c123.o(RESET) refers to uart.o(.text) for UART1_Handler
    startup_tm4c123.o(RESET) refers to timer0.o(.text) for TIMER0A_Handler
    startup_tm4c123.o(RESET) refers to timer1.o(.text) for TIMER1A_Handler
    startup_tm4c123.o(RESET) refers to texas.o(.text) for TIMER5A_Handler
    startup_tm4c123.o(.text) refers (Special) to heapauxi.o(.text) for __use_two_region_memory
    startup_tm4c123.o(.text) refers to __main.o(!!!main) for __main
    startup_tm4c123.o(.text) refers to startup_tm4c123.o(HEAP) for Heap_Mem
    startup_tm4c123.o(.text) refers to startup_tm4c123.o(STACK) for Stack_Mem
    main.o(.text) refers to main.o(.bss.my) for my
    main.o(.text) refers to slidepot.o(.text) for SlidePot::SlidePot(unsigned int, unsigned int)
    main.o(.text) refers to main.o(.bss.b) for b
    main.o(.text) refers to main.o(.data.setUp) for setUp
    main.o(.text) refers to module.o(.text) for Bomb::Bomb(int*, int)
    main.o(.text) refers to main.o(.data.ADCint) for ADCint
    main.o(.text) refers to main.o(.bss.ADCinterval) for ADCinterval
    main.o(.text) refers to faddsub_clz.o(x$fpl$fadd) for __aeabi_fadd
    main.o(.text) refers to fmul.o(x$fpl$fmul) for __aeabi_fmul
    main.o(.text) refers to new.cpp.o(.text._Znwj) for operator new(unsigned int)
    main.o(.text) refers to main.o(.bss.modules) for modules
    main.o(.text) refers to main.o(.bss.t) for t
    main.o(.text) refers to main.o(.bss.timer_location) for timer_location
    main.o(.text) refers to main.o(.bss.num_wires) for num_wires
    main.o(.text) refers to main.o(.bss.w1) for w1
    main.o(.text) refers to main.o(.bss.w2) for w2
    main.o(.text) refers to main.o(.bss.num_button) for num_button
    main.o(.text) refers to main.o(.bss.b1) for b1
    main.o(.text) refers to main.o(.bss.b2) for b2
    main.o(.text) refers to main.o(.bss.num_MorseCode) for num_MorseCode
    main.o(.text) refers to main.o(.bss.mc1) for mc1
    main.o(.text) refers to main.o(.bss.mc2) for mc2
    main.o(.text) refers to main.o(.bss.num_math) for num_math
    main.o(.text) refers to main.o(.bss.m1) for m1
    main.o(.text) refers to main.o(.bss.m2) for m2
    main.o(.text) refers to new.cpp.o(.text._Znaj) for operator new[](unsigned int)
    main.o(.text) refers to main.o(.bss.PeriodicTask3) for PeriodicTask3
    main.o(.text) refers to timer1.o(.text) for noneSelected()
    main.o(.text) refers to main.o(.bss.screen) for screen
    main.o(.text) refers to main.o(.bss.selectorclicked) for selectorclicked
    main.o(.text) refers to main.o(.bss.ADCFlag) for ADCFlag
    main.o(.text) refers to startup_tm4c123.o(.text) for DisableInterrupts
    main.o(.text) refers to pll.o(.text) for PLL_Init(unsigned int)
    main.o(.text) refers to st7735.o(.text) for Output_Init()
    main.o(.text) refers to sound.o(.text) for Wave_Init()
    main.o(.text) refers to main.o(.rodata._ZL5title) for title
    main.o(.text) refers to main.o(.rodata.str1.1) for .L.str
    main.o(.text) refers to main.o(.bss.language) for language
    main.o(.ARM.exidx) refers to main.o(.text) for [Anonymous Symbol]
    main.o(.data.explosion) refers to main.o(.rodata._ZL10explosion1) for [Anonymous Symbol]
    main.o(.data.explosion) refers to main.o(.rodata._ZL10explosion2) for [Anonymous Symbol]
    main.o(.data.explosion) refers to main.o(.rodata._ZL10explosion3) for [Anonymous Symbol]
    main.o(.data.explosion) refers to main.o(.rodata._ZL10explosion4) for [Anonymous Symbol]
    main.o(.data.explosion) refers to main.o(.rodata._ZL10explosion5) for [Anonymous Symbol]
    main.o(.data.explosion) refers to main.o(.rodata._ZL10explosion6) for [Anonymous Symbol]
    main.o(.init_array) refers to main.o(.text) for _GLOBAL__sub_I_main.cpp
    dac.o(.ARM.exidx) refers to dac.o(.text) for [Anonymous Symbol]
    pll.o(.ARM.exidx) refers to pll.o(.text) for [Anonymous Symbol]
    random.o(.text) refers to random.o(.bss._ZL1M) for M
    random.o(.ARM.exidx) refers to random.o(.text) for [Anonymous Symbol]
    st7735.o(.text) refers to st7735.o(.rodata._ZL4Bcmd) for Bcmd
    st7735.o(.text) refers to st7735.o(.data.StTextColor) for StTextColor
    st7735.o(.text) refers to st7735.o(.bss._ZL8RowStart) for RowStart
    st7735.o(.text) refers to st7735.o(.bss._ZL8ColStart) for ColStart
    st7735.o(.text) refers to st7735.o(.bss.StX) for StX
    st7735.o(.text) refers to st7735.o(.bss.StY) for StY
    st7735.o(.text) refers to st7735.o(.data._ZL6_width) for _width
    st7735.o(.text) refers to st7735.o(.data._ZL7_height) for _height
    st7735.o(.text) refers to st7735.o(.rodata._ZL5Rcmd1) for Rcmd1
    st7735.o(.text) refers to st7735.o(.rodata._ZL10Rcmd2green) for Rcmd2green
    st7735.o(.text) refers to st7735.o(.rodata._ZL8Rcmd2red) for Rcmd2red
    st7735.o(.text) refers to st7735.o(.rodata._ZL5Rcmd3) for Rcmd3
    st7735.o(.text) refers to st7735.o(.bss._ZL8TabColor) for TabColor
    st7735.o(.text) refers to st7735.o(.rodata._ZL11smallCircle) for smallCircle
    st7735.o(.text) refers to st7735.o(.rodata._ZL6circle) for circle
    st7735.o(.text) refers to st7735.o(.rodata._ZL4Font) for Font
    st7735.o(.text) refers to st7735.o(.bss.Messageindex) for Messageindex
    st7735.o(.text) refers to st7735.o(.bss.Message) for Message
    st7735.o(.text) refers to st7735.o(.rodata.str1.1) for .L.str
    st7735.o(.text) refers to st7735.o(.bss._ZL8Rotation) for Rotation
    st7735.o(.text) refers to st7735.o(.bss.Ymax) for Ymax
    st7735.o(.text) refers to st7735.o(.bss.Ymin) for Ymin
    st7735.o(.text) refers to st7735.o(.bss.Yrange) for Yrange
    st7735.o(.text) refers to st7735.o(.bss.X) for X
    st7735.o(.text) refers to st7735.o(.bss.lastj) for lastj
    st7735.o(.text) refers to st7735.o(.rodata._ZL4dBfs) for dBfs
    st7735.o(.ARM.exidx) refers to st7735.o(.text) for [Anonymous Symbol]
    slidepot.o(.ARM.exidx) refers to slidepot.o(.text) for [Anonymous Symbol]
    sound.o(.text) refers to st7735.o(.text) for ST7735_SetCursor(unsigned int, unsigned int)
    sound.o(.text) refers to sound.o(.bss.Length) for Length
    sound.o(.text) refers to dac.o(.text) for DAC_Init()
    sound.o(.text) refers to sound.o(.bss.SoundPt) for SoundPt
    sound.o(.text) refers to sound.o(.rodata._ZL10bExplosion) for bExplosion
    sound.o(.text) refers to sound.o(.rodata._ZL8complete) for complete
    sound.o(.ARM.exidx) refers to sound.o(.text) for [Anonymous Symbol]
    timer0.o(.text) refers to timer0.o(.bss.PeriodicTask0) for PeriodicTask0
    timer0.o(.text) refers to main.o(.bss.t) for t
    timer0.o(.ARM.exidx) refers to timer0.o(.text) for [Anonymous Symbol]
    timer1.o(.text) refers to main.o(.bss.b) for b
    timer1.o(.text) refers to module.o(.text) for Bomb::getSelector()
    timer1.o(.text) refers to timer1.o(.bss.prev_sel) for prev_sel
    timer1.o(.text) refers to timer1.o(.bss.PeriodicTask1) for PeriodicTask1
    timer1.o(.text) refers to main.o(.bss.screen) for screen
    timer1.o(.text) refers to main.o(.data.selectormoved) for selectormoved
    timer1.o(.text) refers to main.o(.bss.w1) for w1
    timer1.o(.text) refers to main.o(.bss.w2) for w2
    timer1.o(.text) refers to main.o(.bss.m1) for m1
    timer1.o(.text) refers to main.o(.bss.m2) for m2
    timer1.o(.text) refers to main.o(.bss.mc1) for mc1
    timer1.o(.text) refers to main.o(.bss.mc2) for mc2
    timer1.o(.text) refers to main.o(.bss.b1) for b1
    timer1.o(.text) refers to timer1.o(.data.presses) for presses
    timer1.o(.text) refers to timer1.o(.bss.answer) for answer
    timer1.o(.text) refers to timer1.o(.bss.onetime) for onetime
    timer1.o(.text) refers to timer1.o(.bss.pressed) for pressed
    timer1.o(.text) refers to timer1.o(.bss.tentime) for tentime
    timer1.o(.text) refers to timer1.o(.bss.waited) for waited
    timer1.o(.text) refers to main.o(.bss.b2) for b2
    timer1.o(.text) refers to main.o(.bss.modules) for modules
    timer1.o(.ARM.exidx) refers to timer1.o(.text) for [Anonymous Symbol]
    timer1.o(.init_array) refers to timer1.o(.text) for _GLOBAL__sub_I_Timer1.cpp
    uart.o(.text) refers to uart.o(.bss.RxFifo) for RxFifo
    uart.o(.text) refers to fifo.o(.text) for Queue::Queue()
    uart.o(.ARM.exidx) refers to uart.o(.text) for [Anonymous Symbol]
    uart.o(.init_array) refers to uart.o(.text) for _GLOBAL__sub_I_UART.cpp
    fifo.o(.ARM.exidx) refers to fifo.o(.text) for [Anonymous Symbol]
    texas.o(.text) refers to pll.o(.text) for PLL_Init(unsigned int)
    texas.o(.ARM.exidx) refers to texas.o(.text) for [Anonymous Symbol]
    module.o(.text) refers to st7735.o(.text) for ST7735_DrawFastVLine(short, short, short, unsigned short)
    module.o(.text) refers to main.o(.bss.num_button) for num_button
    module.o(.text) refers to main.o(.bss.num_math) for num_math
    module.o(.text) refers to main.o(.bss.num_wires) for num_wires
    module.o(.text) refers to main.o(.bss.num_MorseCode) for num_MorseCode
    module.o(.text) refers to module.o(.rodata._ZL6strike) for strike
    module.o(.text) refers to module.o(.rodata._ZTV6Module) for vtable for Module
    module.o(.text) refers to module.o(.rodata._ZL6xCords) for xCords
    module.o(.text) refers to module.o(.rodata._ZL6yCords) for yCords
    module.o(.text) refers to module.o(.rodata._ZL14unsolved_light) for unsolved_light
    module.o(.text) refers to module.o(.rodata._ZL11emptymodule) for emptymodule
    module.o(.text) refers to module.o(.rodata._ZL12solved_light) for solved_light
    module.o(.text) refers to module.o(.rodata._ZTV5Timer) for vtable for Timer
    module.o(.text) refers to module.o(.rodata._ZTV5Wires) for vtable for Wires
    module.o(.text) refers to random.o(.text) for Random_Init(unsigned int)
    module.o(.text) refers to main.o(.bss.b) for b
    module.o(.text) refers to main.o(.bss.screen) for screen
    module.o(.text) refers to module.o(.rodata._ZTV6Button) for vtable for Button
    module.o(.text) refers to module.o(.rodata._ZL6colors) for colors
    module.o(.text) refers to module.o(.rodata._ZL7phrases) for phrases
    module.o(.text) refers to module.o(.data.buttons) for buttons
    module.o(.text) refers to module.o(.rodata._ZTV9MorseCode) for vtable for MorseCode
    module.o(.text) refers to module.o(.data.words) for words
    module.o(.text) refers to module.o(.data.morse) for morse
    module.o(.text) refers to module.o(.rodata.str1.1) for .L.str.20
    module.o(.text) refers to module.o(.rodata._ZL11frequencies) for frequencies
    module.o(.text) refers to module.o(.data.math_images) for math_images
    module.o(.text) refers to module.o(.bss.img1) for img1
    module.o(.text) refers to module.o(.bss.img2) for img2
    module.o(.text) refers to module.o(.bss.img3) for img3
    module.o(.text) refers to module.o(.bss.img4) for img4
    module.o(.text) refers to module.o(.bss.img5) for img5
    module.o(.text) refers to module.o(.bss.img6) for img6
    module.o(.text) refers to module.o(.bss.img7) for img7
    module.o(.text) refers to module.o(.bss.img8) for img8
    module.o(.text) refers to module.o(.bss.img9) for img9
    module.o(.text) refers to module.o(.bss.img10) for img10
    module.o(.text) refers to module.o(.bss.img11) for img11
    module.o(.text) refers to module.o(.bss.img12) for img12
    module.o(.text) refers to module.o(.bss.img13) for img13
    module.o(.text) refers to module.o(.bss.img14) for img14
    module.o(.text) refers to module.o(.bss.img15) for img15
    module.o(.text) refers to module.o(.bss.img16) for img16
    module.o(.text) refers to module.o(.bss.img17) for img17
    module.o(.text) refers to module.o(.bss.img18) for img18
    module.o(.text) refers to module.o(.bss.img19) for img19
    module.o(.text) refers to module.o(.bss.img20) for img20
    module.o(.text) refers to module.o(.bss.img21) for img21
    module.o(.text) refers to module.o(.bss.img22) for img22
    module.o(.text) refers to module.o(.bss.img23) for img23
    module.o(.text) refers to module.o(.bss.img24) for img24
    module.o(.text) refers to module.o(.bss.img25) for img25
    module.o(.text) refers to module.o(.bss.img26) for img26
    module.o(.text) refers to module.o(.bss.img27) for img27
    module.o(.text) refers to module.o(.bss.img28) for img28
    module.o(.text) refers to module.o(.bss.imgarray) for imgarray
    module.o(.text) refers to module.o(.bss.imgdigits) for imgdigits
    module.o(.text) refers to module.o(.bss.imgops) for imgops
    module.o(.text) refers to module.o(.bss.imgposs) for imgposs
    module.o(.text) refers to module.o(.rodata._ZTV4Math) for vtable for Math
    module.o(.ARM.exidx) refers to module.o(.text) for [Anonymous Symbol]
    module.o(.data.math_images) refers to module.o(.rodata._ZL6image1) for [Anonymous Symbol]
    module.o(.data.math_images) refers to module.o(.rodata._ZL6image2) for [Anonymous Symbol]
    module.o(.data.math_images) refers to module.o(.rodata._ZL6image3) for [Anonymous Symbol]
    module.o(.data.math_images) refers to module.o(.rodata._ZL6image4) for [Anonymous Symbol]
    module.o(.data.math_images) refers to module.o(.rodata._ZL6image5) for [Anonymous Symbol]
    module.o(.data.math_images) refers to module.o(.rodata._ZL6image6) for [Anonymous Symbol]
    module.o(.data.math_images) refers to module.o(.rodata._ZL6image7) for [Anonymous Symbol]
    module.o(.data.math_images) refers to module.o(.rodata._ZL6image8) for [Anonymous Symbol]
    module.o(.data.math_images) refers to module.o(.rodata._ZL6image9) for [Anonymous Symbol]
    module.o(.data.math_images) refers to module.o(.rodata._ZL7image10) for [Anonymous Symbol]
    module.o(.data.math_images) refers to module.o(.rodata._ZL7image11) for [Anonymous Symbol]
    module.o(.data.math_images) refers to module.o(.rodata._ZL7image12) for [Anonymous Symbol]
    module.o(.data.math_images) refers to module.o(.rodata._ZL7image13) for [Anonymous Symbol]
    module.o(.data.math_images) refers to module.o(.rodata._ZL7image14) for [Anonymous Symbol]
    module.o(.data.math_images) refers to module.o(.rodata._ZL7image15) for [Anonymous Symbol]
    module.o(.data.math_images) refers to module.o(.rodata._ZL7image16) for [Anonymous Symbol]
    module.o(.data.math_images) refers to module.o(.rodata._ZL7image17) for [Anonymous Symbol]
    module.o(.data.math_images) refers to module.o(.rodata._ZL7image18) for [Anonymous Symbol]
    module.o(.data.math_images) refers to module.o(.rodata._ZL7image19) for [Anonymous Symbol]
    module.o(.data.math_images) refers to module.o(.rodata._ZL7image20) for [Anonymous Symbol]
    module.o(.data.math_images) refers to module.o(.rodata._ZL7image21) for [Anonymous Symbol]
    module.o(.data.math_images) refers to module.o(.rodata._ZL7image22) for [Anonymous Symbol]
    module.o(.data.math_images) refers to module.o(.rodata._ZL7image23) for [Anonymous Symbol]
    module.o(.data.math_images) refers to module.o(.rodata._ZL7image24) for [Anonymous Symbol]
    module.o(.data.math_images) refers to module.o(.rodata._ZL7image25) for [Anonymous Symbol]
    module.o(.data.math_images) refers to module.o(.rodata._ZL7image26) for [Anonymous Symbol]
    module.o(.data.math_images) refers to module.o(.rodata._ZL7image27) for [Anonymous Symbol]
    module.o(.data.math_images) refers to module.o(.rodata._ZL7image28) for [Anonymous Symbol]
    module.o(.data.morse) refers to module.o(.rodata.str1.1) for [Anonymous Symbol]
    module.o(.data.words) refers to module.o(.rodata.str1.1) for [Anonymous Symbol]
    module.o(.rodata._ZTV6Module) refers to module.o(.rodata._ZTI6Module) for typeinfo for Module
    module.o(.rodata._ZTV6Module) refers to module.o(.text) for Module::Draw(int)
    module.o(.rodata._ZTV5Timer) refers to module.o(.rodata._ZTI5Timer) for typeinfo for Timer
    module.o(.rodata._ZTV5Timer) refers to module.o(.text) for Timer::Draw(int)
    module.o(.rodata._ZTV5Wires) refers to module.o(.rodata._ZTI5Wires) for typeinfo for Wires
    module.o(.rodata._ZTV5Wires) refers to module.o(.text) for Wires::Draw(int)
    module.o(.data.buttons) refers to module.o(.rodata._ZL10blue_abort) for [Anonymous Symbol]
    module.o(.data.buttons) refers to module.o(.rodata._ZL9blue_hold) for [Anonymous Symbol]
    module.o(.data.buttons) refers to module.o(.rodata._ZL7blue_no) for [Anonymous Symbol]
    module.o(.data.buttons) refers to module.o(.rodata._ZL9blue_stop) for [Anonymous Symbol]
    module.o(.data.buttons) refers to module.o(.rodata._ZL10blue_press) for [Anonymous Symbol]
    module.o(.data.buttons) refers to module.o(.rodata._ZL9red_abort) for [Anonymous Symbol]
    module.o(.data.buttons) refers to module.o(.rodata._ZL8red_hold) for [Anonymous Symbol]
    module.o(.data.buttons) refers to module.o(.rodata._ZL6red_no) for [Anonymous Symbol]
    module.o(.data.buttons) refers to module.o(.rodata._ZL8red_stop) for [Anonymous Symbol]
    module.o(.data.buttons) refers to module.o(.rodata._ZL9red_press) for [Anonymous Symbol]
    module.o(.data.buttons) refers to module.o(.rodata._ZL11white_abort) for [Anonymous Symbol]
    module.o(.data.buttons) refers to module.o(.rodata._ZL10white_hold) for [Anonymous Symbol]
    module.o(.data.buttons) refers to module.o(.rodata._ZL8white_no) for [Anonymous Symbol]
    module.o(.data.buttons) refers to module.o(.rodata._ZL11white_press) for [Anonymous Symbol]
    module.o(.data.buttons) refers to module.o(.rodata._ZL10white_stop) for [Anonymous Symbol]
    module.o(.data.buttons) refers to module.o(.rodata._ZL13yellow_bumper) for [Anonymous Symbol]
    module.o(.data.buttons) refers to module.o(.rodata._ZL11yellow_hold) for [Anonymous Symbol]
    module.o(.data.buttons) refers to module.o(.rodata._ZL9yellow_no) for [Anonymous Symbol]
    module.o(.data.buttons) refers to module.o(.rodata._ZL12yellow_press) for [Anonymous Symbol]
    module.o(.data.buttons) refers to module.o(.rodata._ZL11yellow_stop) for [Anonymous Symbol]
    module.o(.rodata._ZTV6Button) refers to module.o(.rodata._ZTI6Button) for typeinfo for Button
    module.o(.rodata._ZTV6Button) refers to module.o(.text) for Button::Draw(int)
    module.o(.rodata._ZTV9MorseCode) refers to module.o(.rodata._ZTI9MorseCode) for typeinfo for MorseCode
    module.o(.rodata._ZTV9MorseCode) refers to module.o(.text) for MorseCode::Draw(int)
    module.o(.data.operations) refers to module.o(.rodata._ZL6image2) for [Anonymous Symbol]
    module.o(.data.operations) refers to module.o(.rodata._ZL7image10) for [Anonymous Symbol]
    module.o(.data.operations) refers to module.o(.rodata._ZL7image22) for [Anonymous Symbol]
    module.o(.data.operations) refers to module.o(.rodata._ZL7image28) for [Anonymous Symbol]
    module.o(.rodata._ZTV4Math) refers to module.o(.rodata._ZTI4Math) for typeinfo for Math
    module.o(.rodata._ZTV4Math) refers to module.o(.text) for Math::Draw(int)
    module.o(.rodata._ZTI6Module) refers to private_typeinfo.cpp.o(.rodata._ZTVN10__cxxabiv121__vmi_class_type_infoE) for vtable for __cxxabiv1::__vmi_class_type_info
    module.o(.rodata._ZTI6Module) refers to module.o(.rodata._ZTS6Module) for typeinfo name for Module
    module.o(.rodata._ZTI6Module) refers to module.o(.rodata._ZTI4Bomb) for typeinfo for Bomb
    module.o(.rodata._ZTI5Timer) refers to private_typeinfo.cpp.o(.rodata._ZTVN10__cxxabiv120__si_class_type_infoE) for vtable for __cxxabiv1::__si_class_type_info
    module.o(.rodata._ZTI5Timer) refers to module.o(.rodata._ZTS5Timer) for typeinfo name for Timer
    module.o(.rodata._ZTI5Timer) refers to module.o(.rodata._ZTI6Module) for typeinfo for Module
    module.o(.rodata._ZTI5Wires) refers to private_typeinfo.cpp.o(.rodata._ZTVN10__cxxabiv120__si_class_type_infoE) for vtable for __cxxabiv1::__si_class_type_info
    module.o(.rodata._ZTI5Wires) refers to module.o(.rodata._ZTS5Wires) for typeinfo name for Wires
    module.o(.rodata._ZTI5Wires) refers to module.o(.rodata._ZTI6Module) for typeinfo for Module
    module.o(.rodata._ZTI6Button) refers to private_typeinfo.cpp.o(.rodata._ZTVN10__cxxabiv120__si_class_type_infoE) for vtable for __cxxabiv1::__si_class_type_info
    module.o(.rodata._ZTI6Button) refers to module.o(.rodata._ZTS6Button) for typeinfo name for Button
    module.o(.rodata._ZTI6Button) refers to module.o(.rodata._ZTI6Module) for typeinfo for Module
    module.o(.rodata._ZTI9MorseCode) refers to private_typeinfo.cpp.o(.rodata._ZTVN10__cxxabiv120__si_class_type_infoE) for vtable for __cxxabiv1::__si_class_type_info
    module.o(.rodata._ZTI9MorseCode) refers to module.o(.rodata._ZTS9MorseCode) for typeinfo name for MorseCode
    module.o(.rodata._ZTI9MorseCode) refers to module.o(.rodata._ZTI6Module) for typeinfo for Module
    module.o(.rodata._ZTI4Math) refers to private_typeinfo.cpp.o(.rodata._ZTVN10__cxxabiv120__si_class_type_infoE) for vtable for __cxxabiv1::__si_class_type_info
    module.o(.rodata._ZTI4Math) refers to module.o(.rodata._ZTS4Math) for typeinfo name for Math
    module.o(.rodata._ZTI4Math) refers to module.o(.rodata._ZTI6Module) for typeinfo for Module
    module.o(.init_array) refers to module.o(.text) for _GLOBAL__sub_I_Module.cpp
    edgeinterrupt.o(.text) refers to module.o(.text) for Key_In()
    edgeinterrupt.o(.text) refers to main.o(.bss.b) for b
    edgeinterrupt.o(.ARM.exidx) refers to edgeinterrupt.o(.text) for [Anonymous Symbol]
    __main.o(!!!main) refers to __rtentry.o(.ARM.Collect$$rtentry$$00000000) for __rt_entry
    init_aeabi.o(.emb_text) refers (Special) to libinit2.o(.ARM.Collect$$libinit$$00000033) for __rt_lib_init_cpp_2
    init_aeabi.o(.init_array) refers (Special) to libinit2.o(.ARM.Collect$$libinit$$00000033) for __rt_lib_init_cpp_2
    init_aeabi.o(.dummy_text) refers (Special) to libinit2.o(.ARM.Collect$$libinit$$00000033) for __rt_lib_init_cpp_2
    init_aeabi.o(.text) refers (Special) to libinit2.o(.ARM.Collect$$libinit$$00000033) for __rt_lib_init_cpp_2
    init_aeabi.o(.ARM.exidx) refers (Special) to libinit2.o(.ARM.Collect$$libinit$$00000033) for __rt_lib_init_cpp_2
    init_aeabi.o(.ARM.exidx) refers to init_aeabi.o(.text) for .text
    faddsub_clz.o(x$fpl$fadd) refers (Special) to usenofp.o(x$fpl$usenofp) for __I$use$fp
    faddsub_clz.o(x$fpl$fadd) refers to faddsub_clz.o(x$fpl$fsub) for _fsub1
    faddsub_clz.o(x$fpl$fadd) refers to fretinf.o(x$fpl$fretinf) for __fpl_fretinf
    faddsub_clz.o(x$fpl$fadd) refers to fnaninf.o(x$fpl$fnaninf) for __fpl_fnaninf
    faddsub_clz.o(x$fpl$frsb) refers (Special) to usenofp.o(x$fpl$usenofp) for __I$use$fp
    faddsub_clz.o(x$fpl$frsb) refers to faddsub_clz.o(x$fpl$fadd) for _fadd1
    faddsub_clz.o(x$fpl$frsb) refers to faddsub_clz.o(x$fpl$fsub) for _fsub1
    faddsub_clz.o(x$fpl$fsub) refers (Special) to usenofp.o(x$fpl$usenofp) for __I$use$fp
    faddsub_clz.o(x$fpl$fsub) refers to faddsub_clz.o(x$fpl$fadd) for _fadd1
    faddsub_clz.o(x$fpl$fsub) refers to fnaninf.o(x$fpl$fnaninf) for __fpl_fnaninf
    fmul.o(x$fpl$fmul) refers (Special) to usenofp.o(x$fpl$usenofp) for __I$use$fp
    fmul.o(x$fpl$fmul) refers to fretinf.o(x$fpl$fretinf) for __fpl_fretinf
    fmul.o(x$fpl$fmul) refers to fnaninf.o(x$fpl$fnaninf) for __fpl_fnaninf
    new.cpp.o(.text._ZSt17__throw_bad_allocv) refers to abort.o(.text) for abort
    new.cpp.o(.ARM.exidx.text._ZSt17__throw_bad_allocv) refers to new.cpp.o(.text._ZSt17__throw_bad_allocv) for [Anonymous Symbol]
    new.cpp.o(.text._Znwj) refers to h1_alloc.o(.text) for malloc
    new.cpp.o(.text._Znwj) refers to cxa_handlers.cpp.o(.text._ZSt15get_new_handlerv) for std::get_new_handler()
    new.cpp.o(.ARM.exidx.text._Znwj) refers to new.cpp.o(.text._Znwj) for [Anonymous Symbol]
    new.cpp.o(.text._ZnwjRKSt9nothrow_t) refers to new.cpp.o(.text._Znwj) for operator new(unsigned int)
    new.cpp.o(.ARM.exidx.text._ZnwjRKSt9nothrow_t) refers to new.cpp.o(.text._ZnwjRKSt9nothrow_t) for [Anonymous Symbol]
    new.cpp.o(.text._Znaj) refers to new.cpp.o(.text._Znwj) for operator new(unsigned int)
    new.cpp.o(.ARM.exidx.text._Znaj) refers to new.cpp.o(.text._Znaj) for [Anonymous Symbol]
    new.cpp.o(.text._ZnajRKSt9nothrow_t) refers to new.cpp.o(.text._Znaj) for operator new[](unsigned int)
    new.cpp.o(.ARM.exidx.text._ZnajRKSt9nothrow_t) refers to new.cpp.o(.text._ZnajRKSt9nothrow_t) for [Anonymous Symbol]
    new.cpp.o(.text._ZdlPv) refers to h1_free.o(.text) for free
    new.cpp.o(.ARM.exidx.text._ZdlPv) refers to new.cpp.o(.text._ZdlPv) for [Anonymous Symbol]
    new.cpp.o(.text._ZdlPvRKSt9nothrow_t) refers to new.cpp.o(.text._ZdlPv) for operator delete(void*)
    new.cpp.o(.ARM.exidx.text._ZdlPvRKSt9nothrow_t) refers to new.cpp.o(.text._ZdlPvRKSt9nothrow_t) for [Anonymous Symbol]
    new.cpp.o(.text._ZdlPvj) refers to new.cpp.o(.text._ZdlPv) for operator delete(void*)
    new.cpp.o(.ARM.exidx.text._ZdlPvj) refers to new.cpp.o(.text._ZdlPvj) for [Anonymous Symbol]
    new.cpp.o(.text._ZdaPv) refers to new.cpp.o(.text._ZdlPv) for operator delete(void*)
    new.cpp.o(.ARM.exidx.text._ZdaPv) refers to new.cpp.o(.text._ZdaPv) for [Anonymous Symbol]
    new.cpp.o(.text._ZdaPvRKSt9nothrow_t) refers to new.cpp.o(.text._ZdaPv) for operator delete[](void*)
    new.cpp.o(.ARM.exidx.text._ZdaPvRKSt9nothrow_t) refers to new.cpp.o(.text._ZdaPvRKSt9nothrow_t) for [Anonymous Symbol]
    new.cpp.o(.text._ZdaPvj) refers to new.cpp.o(.text._ZdaPv) for operator delete[](void*)
    new.cpp.o(.ARM.exidx.text._ZdaPvj) refers to new.cpp.o(.text._ZdaPvj) for [Anonymous Symbol]
    new.cpp.o(.text._ZnwjSt11align_val_t) refers to h1_memalign.o(.text) for posix_memalign
    new.cpp.o(.text._ZnwjSt11align_val_t) refers to cxa_handlers.cpp.o(.text._ZSt15get_new_handlerv) for std::get_new_handler()
    new.cpp.o(.ARM.exidx.text._ZnwjSt11align_val_t) refers to new.cpp.o(.text._ZnwjSt11align_val_t) for [Anonymous Symbol]
    new.cpp.o(.text._ZnwjSt11align_val_tRKSt9nothrow_t) refers to new.cpp.o(.text._ZnwjSt11align_val_t) for operator new(unsigned int, std::align_val_t)
    new.cpp.o(.ARM.exidx.text._ZnwjSt11align_val_tRKSt9nothrow_t) refers to new.cpp.o(.text._ZnwjSt11align_val_tRKSt9nothrow_t) for [Anonymous Symbol]
    new.cpp.o(.text._ZnajSt11align_val_t) refers to new.cpp.o(.text._ZnwjSt11align_val_t) for operator new(unsigned int, std::align_val_t)
    new.cpp.o(.ARM.exidx.text._ZnajSt11align_val_t) refers to new.cpp.o(.text._ZnajSt11align_val_t) for [Anonymous Symbol]
    new.cpp.o(.text._ZnajSt11align_val_tRKSt9nothrow_t) refers to new.cpp.o(.text._ZnajSt11align_val_t) for operator new[](unsigned int, std::align_val_t)
    new.cpp.o(.ARM.exidx.text._ZnajSt11align_val_tRKSt9nothrow_t) refers to new.cpp.o(.text._ZnajSt11align_val_tRKSt9nothrow_t) for [Anonymous Symbol]
    new.cpp.o(.text._ZdlPvSt11align_val_t) refers to h1_free.o(.text) for free
    new.cpp.o(.ARM.exidx.text._ZdlPvSt11align_val_t) refers to new.cpp.o(.text._ZdlPvSt11align_val_t) for [Anonymous Symbol]
    new.cpp.o(.text._ZdlPvSt11align_val_tRKSt9nothrow_t) refers to new.cpp.o(.text._ZdlPvSt11align_val_t) for operator delete(void*, std::align_val_t)
    new.cpp.o(.ARM.exidx.text._ZdlPvSt11align_val_tRKSt9nothrow_t) refers to new.cpp.o(.text._ZdlPvSt11align_val_tRKSt9nothrow_t) for [Anonymous Symbol]
    new.cpp.o(.text._ZdlPvjSt11align_val_t) refers to new.cpp.o(.text._ZdlPvSt11align_val_t) for operator delete(void*, std::align_val_t)
    new.cpp.o(.ARM.exidx.text._ZdlPvjSt11align_val_t) refers to new.cpp.o(.text._ZdlPvjSt11align_val_t) for [Anonymous Symbol]
    new.cpp.o(.text._ZdaPvSt11align_val_t) refers to new.cpp.o(.text._ZdlPvSt11align_val_t) for operator delete(void*, std::align_val_t)
    new.cpp.o(.ARM.exidx.text._ZdaPvSt11align_val_t) refers to new.cpp.o(.text._ZdaPvSt11align_val_t) for [Anonymous Symbol]
    new.cpp.o(.text._ZdaPvSt11align_val_tRKSt9nothrow_t) refers to new.cpp.o(.text._ZdaPvSt11align_val_t) for operator delete[](void*, std::align_val_t)
    new.cpp.o(.ARM.exidx.text._ZdaPvSt11align_val_tRKSt9nothrow_t) refers to new.cpp.o(.text._ZdaPvSt11align_val_tRKSt9nothrow_t) for [Anonymous Symbol]
    new.cpp.o(.text._ZdaPvjSt11align_val_t) refers to new.cpp.o(.text._ZdaPvSt11align_val_t) for operator delete[](void*, std::align_val_t)
    new.cpp.o(.ARM.exidx.text._ZdaPvjSt11align_val_t) refers to new.cpp.o(.text._ZdaPvjSt11align_val_t) for [Anonymous Symbol]
    private_typeinfo.cpp.o(.text._ZN10__cxxabiv116__shim_type_infoD2Ev) refers to stdlib_typeinfo.cpp.o(.text._ZNSt9type_infoD2Ev) for std::type_info::~type_info__sub_object()
    private_typeinfo.cpp.o(.ARM.exidx.text._ZN10__cxxabiv116__shim_type_infoD2Ev) refers to private_typeinfo.cpp.o(.text._ZN10__cxxabiv116__shim_type_infoD2Ev) for [Anonymous Symbol]
    private_typeinfo.cpp.o(.ARM.exidx.text._ZN10__cxxabiv116__shim_type_infoD0Ev) refers to private_typeinfo.cpp.o(.text._ZN10__cxxabiv116__shim_type_infoD0Ev) for [Anonymous Symbol]
    private_typeinfo.cpp.o(.ARM.exidx.text._ZNK10__cxxabiv116__shim_type_info5noop1Ev) refers to private_typeinfo.cpp.o(.text._ZNK10__cxxabiv116__shim_type_info5noop1Ev) for [Anonymous Symbol]
    private_typeinfo.cpp.o(.ARM.exidx.text._ZNK10__cxxabiv116__shim_type_info5noop2Ev) refers to private_typeinfo.cpp.o(.text._ZNK10__cxxabiv116__shim_type_info5noop2Ev) for [Anonymous Symbol]
    private_typeinfo.cpp.o(.text._ZN10__cxxabiv123__fundamental_type_infoD0Ev) refers to new.cpp.o(.text._ZdlPvj) for operator delete(void*, unsigned int)
    private_typeinfo.cpp.o(.ARM.exidx.text._ZN10__cxxabiv123__fundamental_type_infoD0Ev) refers to private_typeinfo.cpp.o(.text._ZN10__cxxabiv123__fundamental_type_infoD0Ev) for [Anonymous Symbol]
    private_typeinfo.cpp.o(.text._ZN10__cxxabiv117__array_type_infoD0Ev) refers to new.cpp.o(.text._ZdlPvj) for operator delete(void*, unsigned int)
    private_typeinfo.cpp.o(.ARM.exidx.text._ZN10__cxxabiv117__array_type_infoD0Ev) refers to private_typeinfo.cpp.o(.text._ZN10__cxxabiv117__array_type_infoD0Ev) for [Anonymous Symbol]
    private_typeinfo.cpp.o(.text._ZN10__cxxabiv120__function_type_infoD0Ev) refers to new.cpp.o(.text._ZdlPvj) for operator delete(void*, unsigned int)
    private_typeinfo.cpp.o(.ARM.exidx.text._ZN10__cxxabiv120__function_type_infoD0Ev) refers to private_typeinfo.cpp.o(.text._ZN10__cxxabiv120__function_type_infoD0Ev) for [Anonymous Symbol]
    private_typeinfo.cpp.o(.text._ZN10__cxxabiv116__enum_type_infoD0Ev) refers to new.cpp.o(.text._ZdlPvj) for operator delete(void*, unsigned int)
    private_typeinfo.cpp.o(.ARM.exidx.text._ZN10__cxxabiv116__enum_type_infoD0Ev) refers to private_typeinfo.cpp.o(.text._ZN10__cxxabiv116__enum_type_infoD0Ev) for [Anonymous Symbol]
    private_typeinfo.cpp.o(.text._ZN10__cxxabiv117__class_type_infoD0Ev) refers to new.cpp.o(.text._ZdlPvj) for operator delete(void*, unsigned int)
    private_typeinfo.cpp.o(.ARM.exidx.text._ZN10__cxxabiv117__class_type_infoD0Ev) refers to private_typeinfo.cpp.o(.text._ZN10__cxxabiv117__class_type_infoD0Ev) for [Anonymous Symbol]
    private_typeinfo.cpp.o(.text._ZN10__cxxabiv120__si_class_type_infoD0Ev) refers to new.cpp.o(.text._ZdlPvj) for operator delete(void*, unsigned int)
    private_typeinfo.cpp.o(.ARM.exidx.text._ZN10__cxxabiv120__si_class_type_infoD0Ev) refers to private_typeinfo.cpp.o(.text._ZN10__cxxabiv120__si_class_type_infoD0Ev) for [Anonymous Symbol]
    private_typeinfo.cpp.o(.text._ZN10__cxxabiv121__vmi_class_type_infoD0Ev) refers to new.cpp.o(.text._ZdlPvj) for operator delete(void*, unsigned int)
    private_typeinfo.cpp.o(.ARM.exidx.text._ZN10__cxxabiv121__vmi_class_type_infoD0Ev) refers to private_typeinfo.cpp.o(.text._ZN10__cxxabiv121__vmi_class_type_infoD0Ev) for [Anonymous Symbol]
    private_typeinfo.cpp.o(.text._ZN10__cxxabiv117__pbase_type_infoD0Ev) refers to new.cpp.o(.text._ZdlPvj) for operator delete(void*, unsigned int)
    private_typeinfo.cpp.o(.ARM.exidx.text._ZN10__cxxabiv117__pbase_type_infoD0Ev) refers to private_typeinfo.cpp.o(.text._ZN10__cxxabiv117__pbase_type_infoD0Ev) for [Anonymous Symbol]
    private_typeinfo.cpp.o(.text._ZN10__cxxabiv119__pointer_type_infoD0Ev) refers to new.cpp.o(.text._ZdlPvj) for operator delete(void*, unsigned int)
    private_typeinfo.cpp.o(.ARM.exidx.text._ZN10__cxxabiv119__pointer_type_infoD0Ev) refers to private_typeinfo.cpp.o(.text._ZN10__cxxabiv119__pointer_type_infoD0Ev) for [Anonymous Symbol]
    private_typeinfo.cpp.o(.text._ZN10__cxxabiv129__pointer_to_member_type_infoD0Ev) refers to new.cpp.o(.text._ZdlPvj) for operator delete(void*, unsigned int)
    private_typeinfo.cpp.o(.ARM.exidx.text._ZN10__cxxabiv129__pointer_to_member_type_infoD0Ev) refers to private_typeinfo.cpp.o(.text._ZN10__cxxabiv129__pointer_to_member_type_infoD0Ev) for [Anonymous Symbol]
    private_typeinfo.cpp.o(.ARM.exidx.text._ZNK10__cxxabiv123__fundamental_type_info9can_catchEPKNS_16__shim_type_infoERPv) refers to private_typeinfo.cpp.o(.text._ZNK10__cxxabiv123__fundamental_type_info9can_catchEPKNS_16__shim_type_infoERPv) for [Anonymous Symbol]
    private_typeinfo.cpp.o(.ARM.exidx.text._ZNK10__cxxabiv117__array_type_info9can_catchEPKNS_16__shim_type_infoERPv) refers to private_typeinfo.cpp.o(.text._ZNK10__cxxabiv117__array_type_info9can_catchEPKNS_16__shim_type_infoERPv) for [Anonymous Symbol]
    private_typeinfo.cpp.o(.ARM.exidx.text._ZNK10__cxxabiv120__function_type_info9can_catchEPKNS_16__shim_type_infoERPv) refers to private_typeinfo.cpp.o(.text._ZNK10__cxxabiv120__function_type_info9can_catchEPKNS_16__shim_type_infoERPv) for [Anonymous Symbol]
    private_typeinfo.cpp.o(.ARM.exidx.text._ZNK10__cxxabiv116__enum_type_info9can_catchEPKNS_16__shim_type_infoERPv) refers to private_typeinfo.cpp.o(.text._ZNK10__cxxabiv116__enum_type_info9can_catchEPKNS_16__shim_type_infoERPv) for [Anonymous Symbol]
    private_typeinfo.cpp.o(.text._ZNK10__cxxabiv117__class_type_info9can_catchEPKNS_16__shim_type_infoERPv) refers to private_typeinfo.cpp.o(.rodata._ZTIN10__cxxabiv116__shim_type_infoE) for typeinfo for __cxxabiv1::__shim_type_info
    private_typeinfo.cpp.o(.text._ZNK10__cxxabiv117__class_type_info9can_catchEPKNS_16__shim_type_infoERPv) refers to private_typeinfo.cpp.o(.rodata._ZTIN10__cxxabiv117__class_type_infoE) for typeinfo for __cxxabiv1::__class_type_info
    private_typeinfo.cpp.o(.text._ZNK10__cxxabiv117__class_type_info9can_catchEPKNS_16__shim_type_infoERPv) refers to private_typeinfo.cpp.o(.text.__dynamic_cast) for __dynamic_cast
    private_typeinfo.cpp.o(.text._ZNK10__cxxabiv117__class_type_info9can_catchEPKNS_16__shim_type_infoERPv) refers to rt_memclr_w.o(.text) for __aeabi_memclr4
    private_typeinfo.cpp.o(.ARM.exidx.text._ZNK10__cxxabiv117__class_type_info9can_catchEPKNS_16__shim_type_infoERPv) refers to private_typeinfo.cpp.o(.text._ZNK10__cxxabiv117__class_type_info9can_catchEPKNS_16__shim_type_infoERPv) for [Anonymous Symbol]
    private_typeinfo.cpp.o(.text.__dynamic_cast) refers to rt_memclr_w.o(.text) for __aeabi_memclr4
    private_typeinfo.cpp.o(.ARM.exidx.text.__dynamic_cast) refers to private_typeinfo.cpp.o(.text.__dynamic_cast) for [Anonymous Symbol]
    private_typeinfo.cpp.o(.ARM.exidx.text._ZNK10__cxxabiv117__class_type_info24process_found_base_classEPNS_19__dynamic_cast_infoEPvi) refers to private_typeinfo.cpp.o(.text._ZNK10__cxxabiv117__class_type_info24process_found_base_classEPNS_19__dynamic_cast_infoEPvi) for [Anonymous Symbol]
    private_typeinfo.cpp.o(.ARM.exidx.text._ZNK10__cxxabiv117__class_type_info27has_unambiguous_public_baseEPNS_19__dynamic_cast_infoEPvi) refers to private_typeinfo.cpp.o(.text._ZNK10__cxxabiv117__class_type_info27has_unambiguous_public_baseEPNS_19__dynamic_cast_infoEPvi) for [Anonymous Symbol]
    private_typeinfo.cpp.o(.ARM.exidx.text._ZNK10__cxxabiv120__si_class_type_info27has_unambiguous_public_baseEPNS_19__dynamic_cast_infoEPvi) refers to private_typeinfo.cpp.o(.text._ZNK10__cxxabiv120__si_class_type_info27has_unambiguous_public_baseEPNS_19__dynamic_cast_infoEPvi) for [Anonymous Symbol]
    private_typeinfo.cpp.o(.ARM.exidx.text._ZNK10__cxxabiv122__base_class_type_info27has_unambiguous_public_baseEPNS_19__dynamic_cast_infoEPvi) refers to private_typeinfo.cpp.o(.text._ZNK10__cxxabiv122__base_class_type_info27has_unambiguous_public_baseEPNS_19__dynamic_cast_infoEPvi) for [Anonymous Symbol]
    private_typeinfo.cpp.o(.text._ZNK10__cxxabiv121__vmi_class_type_info27has_unambiguous_public_baseEPNS_19__dynamic_cast_infoEPvi) refers to private_typeinfo.cpp.o(.text._ZNK10__cxxabiv122__base_class_type_info27has_unambiguous_public_baseEPNS_19__dynamic_cast_infoEPvi) for __cxxabiv1::__base_class_type_info::has_unambiguous_public_base(__cxxabiv1::__dynamic_cast_info*, void*, int) const
    private_typeinfo.cpp.o(.ARM.exidx.text._ZNK10__cxxabiv121__vmi_class_type_info27has_unambiguous_public_baseEPNS_19__dynamic_cast_infoEPvi) refers to private_typeinfo.cpp.o(.text._ZNK10__cxxabiv121__vmi_class_type_info27has_unambiguous_public_baseEPNS_19__dynamic_cast_infoEPvi) for [Anonymous Symbol]
    private_typeinfo.cpp.o(.text._ZNK10__cxxabiv117__pbase_type_info9can_catchEPKNS_16__shim_type_infoERPv) refers to strcmpv7em.o(.text) for strcmp
    private_typeinfo.cpp.o(.text._ZNK10__cxxabiv117__pbase_type_info9can_catchEPKNS_16__shim_type_infoERPv) refers to private_typeinfo.cpp.o(.rodata._ZTIN10__cxxabiv116__shim_type_infoE) for typeinfo for __cxxabiv1::__shim_type_info
    private_typeinfo.cpp.o(.text._ZNK10__cxxabiv117__pbase_type_info9can_catchEPKNS_16__shim_type_infoERPv) refers to private_typeinfo.cpp.o(.rodata._ZTIN10__cxxabiv117__pbase_type_infoE) for typeinfo for __cxxabiv1::__pbase_type_info
    private_typeinfo.cpp.o(.text._ZNK10__cxxabiv117__pbase_type_info9can_catchEPKNS_16__shim_type_infoERPv) refers to private_typeinfo.cpp.o(.text.__dynamic_cast) for __dynamic_cast
    private_typeinfo.cpp.o(.ARM.exidx.text._ZNK10__cxxabiv117__pbase_type_info9can_catchEPKNS_16__shim_type_infoERPv) refers to private_typeinfo.cpp.o(.text._ZNK10__cxxabiv117__pbase_type_info9can_catchEPKNS_16__shim_type_infoERPv) for [Anonymous Symbol]
    private_typeinfo.cpp.o(.text._ZNK10__cxxabiv119__pointer_type_info9can_catchEPKNS_16__shim_type_infoERPv) refers to private_typeinfo.cpp.o(.rodata._ZTSDn) for typeinfo name for std::nullptr_t
    private_typeinfo.cpp.o(.text._ZNK10__cxxabiv119__pointer_type_info9can_catchEPKNS_16__shim_type_infoERPv) refers to private_typeinfo.cpp.o(.text._ZNK10__cxxabiv117__pbase_type_info9can_catchEPKNS_16__shim_type_infoERPv) for __cxxabiv1::__pbase_type_info::can_catch(__cxxabiv1::__shim_type_info const*, void*&) const
    private_typeinfo.cpp.o(.text._ZNK10__cxxabiv119__pointer_type_info9can_catchEPKNS_16__shim_type_infoERPv) refers to private_typeinfo.cpp.o(.rodata._ZTIN10__cxxabiv116__shim_type_infoE) for typeinfo for __cxxabiv1::__shim_type_info
    private_typeinfo.cpp.o(.text._ZNK10__cxxabiv119__pointer_type_info9can_catchEPKNS_16__shim_type_infoERPv) refers to private_typeinfo.cpp.o(.rodata._ZTIN10__cxxabiv119__pointer_type_infoE) for typeinfo for __cxxabiv1::__pointer_type_info
    private_typeinfo.cpp.o(.text._ZNK10__cxxabiv119__pointer_type_info9can_catchEPKNS_16__shim_type_infoERPv) refers to private_typeinfo.cpp.o(.text.__dynamic_cast) for __dynamic_cast
    private_typeinfo.cpp.o(.text._ZNK10__cxxabiv119__pointer_type_info9can_catchEPKNS_16__shim_type_infoERPv) refers to private_typeinfo.cpp.o(.rodata._ZTSv) for typeinfo name for void
    private_typeinfo.cpp.o(.text._ZNK10__cxxabiv119__pointer_type_info9can_catchEPKNS_16__shim_type_infoERPv) refers to private_typeinfo.cpp.o(.text._ZNK10__cxxabiv119__pointer_type_info16can_catch_nestedEPKNS_16__shim_type_infoE) for __cxxabiv1::__pointer_type_info::can_catch_nested(__cxxabiv1::__shim_type_info const*) const
    private_typeinfo.cpp.o(.text._ZNK10__cxxabiv119__pointer_type_info9can_catchEPKNS_16__shim_type_infoERPv) refers to private_typeinfo.cpp.o(.rodata._ZTIN10__cxxabiv120__function_type_infoE) for typeinfo for __cxxabiv1::__function_type_info
    private_typeinfo.cpp.o(.text._ZNK10__cxxabiv119__pointer_type_info9can_catchEPKNS_16__shim_type_infoERPv) refers to private_typeinfo.cpp.o(.rodata._ZTIN10__cxxabiv129__pointer_to_member_type_infoE) for typeinfo for __cxxabiv1::__pointer_to_member_type_info
    private_typeinfo.cpp.o(.text._ZNK10__cxxabiv119__pointer_type_info9can_catchEPKNS_16__shim_type_infoERPv) refers to private_typeinfo.cpp.o(.text._ZNK10__cxxabiv129__pointer_to_member_type_info16can_catch_nestedEPKNS_16__shim_type_infoE) for __cxxabiv1::__pointer_to_member_type_info::can_catch_nested(__cxxabiv1::__shim_type_info const*) const
    private_typeinfo.cpp.o(.text._ZNK10__cxxabiv119__pointer_type_info9can_catchEPKNS_16__shim_type_infoERPv) refers to private_typeinfo.cpp.o(.rodata._ZTIN10__cxxabiv117__class_type_infoE) for typeinfo for __cxxabiv1::__class_type_info
    private_typeinfo.cpp.o(.text._ZNK10__cxxabiv119__pointer_type_info9can_catchEPKNS_16__shim_type_infoERPv) refers to rt_memclr_w.o(.text) for __aeabi_memclr4
    private_typeinfo.cpp.o(.ARM.exidx.text._ZNK10__cxxabiv119__pointer_type_info9can_catchEPKNS_16__shim_type_infoERPv) refers to private_typeinfo.cpp.o(.text._ZNK10__cxxabiv119__pointer_type_info9can_catchEPKNS_16__shim_type_infoERPv) for [Anonymous Symbol]
    private_typeinfo.cpp.o(.text._ZNK10__cxxabiv119__pointer_type_info16can_catch_nestedEPKNS_16__shim_type_infoE) refers to private_typeinfo.cpp.o(.rodata._ZTIN10__cxxabiv116__shim_type_infoE) for typeinfo for __cxxabiv1::__shim_type_info
    private_typeinfo.cpp.o(.text._ZNK10__cxxabiv119__pointer_type_info16can_catch_nestedEPKNS_16__shim_type_infoE) refers to private_typeinfo.cpp.o(.rodata._ZTIN10__cxxabiv119__pointer_type_infoE) for typeinfo for __cxxabiv1::__pointer_type_info
    private_typeinfo.cpp.o(.text._ZNK10__cxxabiv119__pointer_type_info16can_catch_nestedEPKNS_16__shim_type_infoE) refers to private_typeinfo.cpp.o(.text.__dynamic_cast) for __dynamic_cast
    private_typeinfo.cpp.o(.text._ZNK10__cxxabiv119__pointer_type_info16can_catch_nestedEPKNS_16__shim_type_infoE) refers to private_typeinfo.cpp.o(.rodata._ZTIN10__cxxabiv129__pointer_to_member_type_infoE) for typeinfo for __cxxabiv1::__pointer_to_member_type_info
    private_typeinfo.cpp.o(.text._ZNK10__cxxabiv119__pointer_type_info16can_catch_nestedEPKNS_16__shim_type_infoE) refers to private_typeinfo.cpp.o(.text._ZNK10__cxxabiv129__pointer_to_member_type_info16can_catch_nestedEPKNS_16__shim_type_infoE) for __cxxabiv1::__pointer_to_member_type_info::can_catch_nested(__cxxabiv1::__shim_type_info const*) const
    private_typeinfo.cpp.o(.ARM.exidx.text._ZNK10__cxxabiv119__pointer_type_info16can_catch_nestedEPKNS_16__shim_type_infoE) refers to private_typeinfo.cpp.o(.text._ZNK10__cxxabiv119__pointer_type_info16can_catch_nestedEPKNS_16__shim_type_infoE) for [Anonymous Symbol]
    private_typeinfo.cpp.o(.text._ZNK10__cxxabiv129__pointer_to_member_type_info16can_catch_nestedEPKNS_16__shim_type_infoE) refers to private_typeinfo.cpp.o(.rodata._ZTIN10__cxxabiv116__shim_type_infoE) for typeinfo for __cxxabiv1::__shim_type_info
    private_typeinfo.cpp.o(.text._ZNK10__cxxabiv129__pointer_to_member_type_info16can_catch_nestedEPKNS_16__shim_type_infoE) refers to private_typeinfo.cpp.o(.rodata._ZTIN10__cxxabiv129__pointer_to_member_type_infoE) for typeinfo for __cxxabiv1::__pointer_to_member_type_info
    private_typeinfo.cpp.o(.text._ZNK10__cxxabiv129__pointer_to_member_type_info16can_catch_nestedEPKNS_16__shim_type_infoE) refers to private_typeinfo.cpp.o(.text.__dynamic_cast) for __dynamic_cast
    private_typeinfo.cpp.o(.ARM.exidx.text._ZNK10__cxxabiv129__pointer_to_member_type_info16can_catch_nestedEPKNS_16__shim_type_infoE) refers to private_typeinfo.cpp.o(.text._ZNK10__cxxabiv129__pointer_to_member_type_info16can_catch_nestedEPKNS_16__shim_type_infoE) for [Anonymous Symbol]
    private_typeinfo.cpp.o(.text._ZNK10__cxxabiv129__pointer_to_member_type_info9can_catchEPKNS_16__shim_type_infoERPv) refers to private_typeinfo.cpp.o(.rodata._ZTSDn) for typeinfo name for std::nullptr_t
    private_typeinfo.cpp.o(.text._ZNK10__cxxabiv129__pointer_to_member_type_info9can_catchEPKNS_16__shim_type_infoERPv) refers to private_typeinfo.cpp.o(.text._ZNK10__cxxabiv117__pbase_type_info9can_catchEPKNS_16__shim_type_infoERPv) for __cxxabiv1::__pbase_type_info::can_catch(__cxxabiv1::__shim_type_info const*, void*&) const
    private_typeinfo.cpp.o(.text._ZNK10__cxxabiv129__pointer_to_member_type_info9can_catchEPKNS_16__shim_type_infoERPv) refers to private_typeinfo.cpp.o(.rodata._ZTIN10__cxxabiv116__shim_type_infoE) for typeinfo for __cxxabiv1::__shim_type_info
    private_typeinfo.cpp.o(.text._ZNK10__cxxabiv129__pointer_to_member_type_info9can_catchEPKNS_16__shim_type_infoERPv) refers to private_typeinfo.cpp.o(.rodata._ZTIN10__cxxabiv129__pointer_to_member_type_infoE) for typeinfo for __cxxabiv1::__pointer_to_member_type_info
    private_typeinfo.cpp.o(.text._ZNK10__cxxabiv129__pointer_to_member_type_info9can_catchEPKNS_16__shim_type_infoERPv) refers to private_typeinfo.cpp.o(.text.__dynamic_cast) for __dynamic_cast
    private_typeinfo.cpp.o(.text._ZNK10__cxxabiv129__pointer_to_member_type_info9can_catchEPKNS_16__shim_type_infoERPv) refers to private_typeinfo.cpp.o(.rodata._ZTIN10__cxxabiv120__function_type_infoE) for typeinfo for __cxxabiv1::__function_type_info
    private_typeinfo.cpp.o(.text._ZNK10__cxxabiv129__pointer_to_member_type_info9can_catchEPKNS_16__shim_type_infoERPv) refers to private_typeinfo.cpp.o(.rodata._ZZNK10__cxxabiv129__pointer_to_member_type_info9can_catchEPKNS_16__shim_type_infoERPvE12null_ptr_rep) for __cxxabiv1::__pointer_to_member_type_info::can_catch(__cxxabiv1::__shim_type_info const*, void*&) const::null_ptr_rep
    private_typeinfo.cpp.o(.text._ZNK10__cxxabiv129__pointer_to_member_type_info9can_catchEPKNS_16__shim_type_infoERPv) refers to private_typeinfo.cpp.o(.rodata._ZZNK10__cxxabiv129__pointer_to_member_type_info9can_catchEPKNS_16__shim_type_infoERPvE12null_ptr_rep_0) for __cxxabiv1::__pointer_to_member_type_info::can_catch(__cxxabiv1::__shim_type_info const*, void*&) const::null_ptr_rep
    private_typeinfo.cpp.o(.ARM.exidx.text._ZNK10__cxxabiv129__pointer_to_member_type_info9can_catchEPKNS_16__shim_type_infoERPv) refers to private_typeinfo.cpp.o(.text._ZNK10__cxxabiv129__pointer_to_member_type_info9can_catchEPKNS_16__shim_type_infoERPv) for [Anonymous Symbol]
    private_typeinfo.cpp.o(.ARM.exidx.text._ZNK10__cxxabiv117__class_type_info29process_static_type_above_dstEPNS_19__dynamic_cast_infoEPKvS4_i) refers to private_typeinfo.cpp.o(.text._ZNK10__cxxabiv117__class_type_info29process_static_type_above_dstEPNS_19__dynamic_cast_infoEPKvS4_i) for [Anonymous Symbol]
    private_typeinfo.cpp.o(.ARM.exidx.text._ZNK10__cxxabiv117__class_type_info29process_static_type_below_dstEPNS_19__dynamic_cast_infoEPKvi) refers to private_typeinfo.cpp.o(.text._ZNK10__cxxabiv117__class_type_info29process_static_type_below_dstEPNS_19__dynamic_cast_infoEPKvi) for [Anonymous Symbol]
    private_typeinfo.cpp.o(.text._ZNK10__cxxabiv121__vmi_class_type_info16search_below_dstEPNS_19__dynamic_cast_infoEPKvib) refers to strcmpv7em.o(.text) for strcmp
    private_typeinfo.cpp.o(.ARM.exidx.text._ZNK10__cxxabiv121__vmi_class_type_info16search_below_dstEPNS_19__dynamic_cast_infoEPKvib) refers to private_typeinfo.cpp.o(.text._ZNK10__cxxabiv121__vmi_class_type_info16search_below_dstEPNS_19__dynamic_cast_infoEPKvib) for [Anonymous Symbol]
    private_typeinfo.cpp.o(.ARM.exidx.text._ZNK10__cxxabiv122__base_class_type_info16search_above_dstEPNS_19__dynamic_cast_infoEPKvS4_ib) refers to private_typeinfo.cpp.o(.text._ZNK10__cxxabiv122__base_class_type_info16search_above_dstEPNS_19__dynamic_cast_infoEPKvS4_ib) for [Anonymous Symbol]
    private_typeinfo.cpp.o(.ARM.exidx.text._ZNK10__cxxabiv122__base_class_type_info16search_below_dstEPNS_19__dynamic_cast_infoEPKvib) refers to private_typeinfo.cpp.o(.text._ZNK10__cxxabiv122__base_class_type_info16search_below_dstEPNS_19__dynamic_cast_infoEPKvib) for [Anonymous Symbol]
    private_typeinfo.cpp.o(.text._ZNK10__cxxabiv120__si_class_type_info16search_below_dstEPNS_19__dynamic_cast_infoEPKvib) refers to strcmpv7em.o(.text) for strcmp
    private_typeinfo.cpp.o(.ARM.exidx.text._ZNK10__cxxabiv120__si_class_type_info16search_below_dstEPNS_19__dynamic_cast_infoEPKvib) refers to private_typeinfo.cpp.o(.text._ZNK10__cxxabiv120__si_class_type_info16search_below_dstEPNS_19__dynamic_cast_infoEPKvib) for [Anonymous Symbol]
    private_typeinfo.cpp.o(.text._ZNK10__cxxabiv117__class_type_info16search_below_dstEPNS_19__dynamic_cast_infoEPKvib) refers to strcmpv7em.o(.text) for strcmp
    private_typeinfo.cpp.o(.ARM.exidx.text._ZNK10__cxxabiv117__class_type_info16search_below_dstEPNS_19__dynamic_cast_infoEPKvib) refers to private_typeinfo.cpp.o(.text._ZNK10__cxxabiv117__class_type_info16search_below_dstEPNS_19__dynamic_cast_infoEPKvib) for [Anonymous Symbol]
    private_typeinfo.cpp.o(.text._ZNK10__cxxabiv121__vmi_class_type_info16search_above_dstEPNS_19__dynamic_cast_infoEPKvS4_ib) refers to strcmpv7em.o(.text) for strcmp
    private_typeinfo.cpp.o(.text._ZNK10__cxxabiv121__vmi_class_type_info16search_above_dstEPNS_19__dynamic_cast_infoEPKvS4_ib) refers to private_typeinfo.cpp.o(.text._ZNK10__cxxabiv117__class_type_info29process_static_type_above_dstEPNS_19__dynamic_cast_infoEPKvS4_i) for __cxxabiv1::__class_type_info::process_static_type_above_dst(__cxxabiv1::__dynamic_cast_info*, void const*, void const*, int) const
    private_typeinfo.cpp.o(.ARM.exidx.text._ZNK10__cxxabiv121__vmi_class_type_info16search_above_dstEPNS_19__dynamic_cast_infoEPKvS4_ib) refers to private_typeinfo.cpp.o(.text._ZNK10__cxxabiv121__vmi_class_type_info16search_above_dstEPNS_19__dynamic_cast_infoEPKvS4_ib) for [Anonymous Symbol]
    private_typeinfo.cpp.o(.text._ZNK10__cxxabiv120__si_class_type_info16search_above_dstEPNS_19__dynamic_cast_infoEPKvS4_ib) refers to strcmpv7em.o(.text) for strcmp
    private_typeinfo.cpp.o(.text._ZNK10__cxxabiv120__si_class_type_info16search_above_dstEPNS_19__dynamic_cast_infoEPKvS4_ib) refers to private_typeinfo.cpp.o(.text._ZNK10__cxxabiv117__class_type_info29process_static_type_above_dstEPNS_19__dynamic_cast_infoEPKvS4_i) for __cxxabiv1::__class_type_info::process_static_type_above_dst(__cxxabiv1::__dynamic_cast_info*, void const*, void const*, int) const
    private_typeinfo.cpp.o(.ARM.exidx.text._ZNK10__cxxabiv120__si_class_type_info16search_above_dstEPNS_19__dynamic_cast_infoEPKvS4_ib) refers to private_typeinfo.cpp.o(.text._ZNK10__cxxabiv120__si_class_type_info16search_above_dstEPNS_19__dynamic_cast_infoEPKvS4_ib) for [Anonymous Symbol]
    private_typeinfo.cpp.o(.text._ZNK10__cxxabiv117__class_type_info16search_above_dstEPNS_19__dynamic_cast_infoEPKvS4_ib) refers to strcmpv7em.o(.text) for strcmp
    private_typeinfo.cpp.o(.text._ZNK10__cxxabiv117__class_type_info16search_above_dstEPNS_19__dynamic_cast_infoEPKvS4_ib) refers to private_typeinfo.cpp.o(.text._ZNK10__cxxabiv117__class_type_info29process_static_type_above_dstEPNS_19__dynamic_cast_infoEPKvS4_i) for __cxxabiv1::__class_type_info::process_static_type_above_dst(__cxxabiv1::__dynamic_cast_info*, void const*, void const*, int) const
    private_typeinfo.cpp.o(.ARM.exidx.text._ZNK10__cxxabiv117__class_type_info16search_above_dstEPNS_19__dynamic_cast_infoEPKvS4_ib) refers to private_typeinfo.cpp.o(.text._ZNK10__cxxabiv117__class_type_info16search_above_dstEPNS_19__dynamic_cast_infoEPKvS4_ib) for [Anonymous Symbol]
    private_typeinfo.cpp.o(.rodata._ZTIN10__cxxabiv116__shim_type_infoE) refers to private_typeinfo.cpp.o(.rodata._ZTVN10__cxxabiv120__si_class_type_infoE) for vtable for __cxxabiv1::__si_class_type_info
    private_typeinfo.cpp.o(.rodata._ZTIN10__cxxabiv116__shim_type_infoE) refers to private_typeinfo.cpp.o(.rodata._ZTSN10__cxxabiv116__shim_type_infoE) for typeinfo name for __cxxabiv1::__shim_type_info
    private_typeinfo.cpp.o(.rodata._ZTIN10__cxxabiv116__shim_type_infoE) refers to stdlib_typeinfo.cpp.o(.rodata._ZTISt9type_info) for typeinfo for std::type_info
    private_typeinfo.cpp.o(.rodata._ZTIN10__cxxabiv117__class_type_infoE) refers to private_typeinfo.cpp.o(.rodata._ZTVN10__cxxabiv120__si_class_type_infoE) for vtable for __cxxabiv1::__si_class_type_info
    private_typeinfo.cpp.o(.rodata._ZTIN10__cxxabiv117__class_type_infoE) refers to private_typeinfo.cpp.o(.rodata._ZTSN10__cxxabiv117__class_type_infoE) for typeinfo name for __cxxabiv1::__class_type_info
    private_typeinfo.cpp.o(.rodata._ZTIN10__cxxabiv117__class_type_infoE) refers to private_typeinfo.cpp.o(.rodata._ZTIN10__cxxabiv116__shim_type_infoE) for typeinfo for __cxxabiv1::__shim_type_info
    private_typeinfo.cpp.o(.rodata._ZTIN10__cxxabiv117__pbase_type_infoE) refers to private_typeinfo.cpp.o(.rodata._ZTVN10__cxxabiv120__si_class_type_infoE) for vtable for __cxxabiv1::__si_class_type_info
    private_typeinfo.cpp.o(.rodata._ZTIN10__cxxabiv117__pbase_type_infoE) refers to private_typeinfo.cpp.o(.rodata._ZTSN10__cxxabiv117__pbase_type_infoE) for typeinfo name for __cxxabiv1::__pbase_type_info
    private_typeinfo.cpp.o(.rodata._ZTIN10__cxxabiv117__pbase_type_infoE) refers to private_typeinfo.cpp.o(.rodata._ZTIN10__cxxabiv116__shim_type_infoE) for typeinfo for __cxxabiv1::__shim_type_info
    private_typeinfo.cpp.o(.rodata._ZTIN10__cxxabiv119__pointer_type_infoE) refers to private_typeinfo.cpp.o(.rodata._ZTVN10__cxxabiv120__si_class_type_infoE) for vtable for __cxxabiv1::__si_class_type_info
    private_typeinfo.cpp.o(.rodata._ZTIN10__cxxabiv119__pointer_type_infoE) refers to private_typeinfo.cpp.o(.rodata._ZTSN10__cxxabiv119__pointer_type_infoE) for typeinfo name for __cxxabiv1::__pointer_type_info
    private_typeinfo.cpp.o(.rodata._ZTIN10__cxxabiv119__pointer_type_infoE) refers to private_typeinfo.cpp.o(.rodata._ZTIN10__cxxabiv117__pbase_type_infoE) for typeinfo for __cxxabiv1::__pbase_type_info
    private_typeinfo.cpp.o(.rodata._ZTIN10__cxxabiv120__function_type_infoE) refers to private_typeinfo.cpp.o(.rodata._ZTVN10__cxxabiv120__si_class_type_infoE) for vtable for __cxxabiv1::__si_class_type_info
    private_typeinfo.cpp.o(.rodata._ZTIN10__cxxabiv120__function_type_infoE) refers to private_typeinfo.cpp.o(.rodata._ZTSN10__cxxabiv120__function_type_infoE) for typeinfo name for __cxxabiv1::__function_type_info
    private_typeinfo.cpp.o(.rodata._ZTIN10__cxxabiv120__function_type_infoE) refers to private_typeinfo.cpp.o(.rodata._ZTIN10__cxxabiv116__shim_type_infoE) for typeinfo for __cxxabiv1::__shim_type_info
    private_typeinfo.cpp.o(.rodata._ZTIN10__cxxabiv129__pointer_to_member_type_infoE) refers to private_typeinfo.cpp.o(.rodata._ZTVN10__cxxabiv120__si_class_type_infoE) for vtable for __cxxabiv1::__si_class_type_info
    private_typeinfo.cpp.o(.rodata._ZTIN10__cxxabiv129__pointer_to_member_type_infoE) refers to private_typeinfo.cpp.o(.rodata._ZTSN10__cxxabiv129__pointer_to_member_type_infoE) for typeinfo name for __cxxabiv1::__pointer_to_member_type_info
    private_typeinfo.cpp.o(.rodata._ZTIN10__cxxabiv129__pointer_to_member_type_infoE) refers to private_typeinfo.cpp.o(.rodata._ZTIN10__cxxabiv117__pbase_type_infoE) for typeinfo for __cxxabiv1::__pbase_type_info
    private_typeinfo.cpp.o(.rodata._ZTVN10__cxxabiv116__shim_type_infoE) refers to private_typeinfo.cpp.o(.rodata._ZTIN10__cxxabiv116__shim_type_infoE) for typeinfo for __cxxabiv1::__shim_type_info
    private_typeinfo.cpp.o(.rodata._ZTVN10__cxxabiv116__shim_type_infoE) refers to private_typeinfo.cpp.o(.text._ZN10__cxxabiv116__shim_type_infoD2Ev) for __cxxabiv1::__shim_type_info::~__shim_type_info__sub_object()
    private_typeinfo.cpp.o(.rodata._ZTVN10__cxxabiv116__shim_type_infoE) refers to private_typeinfo.cpp.o(.text._ZN10__cxxabiv116__shim_type_infoD0Ev) for __cxxabiv1::__shim_type_info::~__shim_type_info__deallocating()
    private_typeinfo.cpp.o(.rodata._ZTVN10__cxxabiv116__shim_type_infoE) refers to private_typeinfo.cpp.o(.text._ZNK10__cxxabiv116__shim_type_info5noop1Ev) for __cxxabiv1::__shim_type_info::noop1() const
    private_typeinfo.cpp.o(.rodata._ZTVN10__cxxabiv116__shim_type_infoE) refers to private_typeinfo.cpp.o(.text._ZNK10__cxxabiv116__shim_type_info5noop2Ev) for __cxxabiv1::__shim_type_info::noop2() const
    private_typeinfo.cpp.o(.rodata._ZTVN10__cxxabiv116__shim_type_infoE) refers to cxa_virtual.cpp.o(.text.__cxa_pure_virtual) for __cxa_pure_virtual
    private_typeinfo.cpp.o(.rodata._ZTVN10__cxxabiv123__fundamental_type_infoE) refers to private_typeinfo.cpp.o(.rodata._ZTIN10__cxxabiv123__fundamental_type_infoE) for typeinfo for __cxxabiv1::__fundamental_type_info
    private_typeinfo.cpp.o(.rodata._ZTVN10__cxxabiv123__fundamental_type_infoE) refers to private_typeinfo.cpp.o(.text._ZN10__cxxabiv116__shim_type_infoD2Ev) for __cxxabiv1::__shim_type_info::~__shim_type_info__sub_object()
    private_typeinfo.cpp.o(.rodata._ZTVN10__cxxabiv123__fundamental_type_infoE) refers to private_typeinfo.cpp.o(.text._ZN10__cxxabiv123__fundamental_type_infoD0Ev) for __cxxabiv1::__fundamental_type_info::~__fundamental_type_info__deallocating()
    private_typeinfo.cpp.o(.rodata._ZTVN10__cxxabiv123__fundamental_type_infoE) refers to private_typeinfo.cpp.o(.text._ZNK10__cxxabiv116__shim_type_info5noop1Ev) for __cxxabiv1::__shim_type_info::noop1() const
    private_typeinfo.cpp.o(.rodata._ZTVN10__cxxabiv123__fundamental_type_infoE) refers to private_typeinfo.cpp.o(.text._ZNK10__cxxabiv116__shim_type_info5noop2Ev) for __cxxabiv1::__shim_type_info::noop2() const
    private_typeinfo.cpp.o(.rodata._ZTVN10__cxxabiv123__fundamental_type_infoE) refers to private_typeinfo.cpp.o(.text._ZNK10__cxxabiv123__fundamental_type_info9can_catchEPKNS_16__shim_type_infoERPv) for __cxxabiv1::__fundamental_type_info::can_catch(__cxxabiv1::__shim_type_info const*, void*&) const
    private_typeinfo.cpp.o(.rodata._ZTIN10__cxxabiv123__fundamental_type_infoE) refers to private_typeinfo.cpp.o(.rodata._ZTVN10__cxxabiv120__si_class_type_infoE) for vtable for __cxxabiv1::__si_class_type_info
    private_typeinfo.cpp.o(.rodata._ZTIN10__cxxabiv123__fundamental_type_infoE) refers to private_typeinfo.cpp.o(.rodata._ZTSN10__cxxabiv123__fundamental_type_infoE) for typeinfo name for __cxxabiv1::__fundamental_type_info
    private_typeinfo.cpp.o(.rodata._ZTIN10__cxxabiv123__fundamental_type_infoE) refers to private_typeinfo.cpp.o(.rodata._ZTIN10__cxxabiv116__shim_type_infoE) for typeinfo for __cxxabiv1::__shim_type_info
    private_typeinfo.cpp.o(.rodata._ZTIv) refers to private_typeinfo.cpp.o(.rodata._ZTVN10__cxxabiv123__fundamental_type_infoE) for vtable for __cxxabiv1::__fundamental_type_info
    private_typeinfo.cpp.o(.rodata._ZTIv) refers to private_typeinfo.cpp.o(.rodata._ZTSv) for typeinfo name for void
    private_typeinfo.cpp.o(.rodata._ZTIPv) refers to private_typeinfo.cpp.o(.rodata._ZTVN10__cxxabiv119__pointer_type_infoE) for vtable for __cxxabiv1::__pointer_type_info
    private_typeinfo.cpp.o(.rodata._ZTIPv) refers to private_typeinfo.cpp.o(.rodata._ZTSPv) for typeinfo name for void*
    private_typeinfo.cpp.o(.rodata._ZTIPv) refers to private_typeinfo.cpp.o(.rodata._ZTIv) for typeinfo for void
    private_typeinfo.cpp.o(.rodata._ZTIPKv) refers to private_typeinfo.cpp.o(.rodata._ZTVN10__cxxabiv119__pointer_type_infoE) for vtable for __cxxabiv1::__pointer_type_info
    private_typeinfo.cpp.o(.rodata._ZTIPKv) refers to private_typeinfo.cpp.o(.rodata._ZTSPKv) for typeinfo name for void const*
    private_typeinfo.cpp.o(.rodata._ZTIPKv) refers to private_typeinfo.cpp.o(.rodata._ZTIv) for typeinfo for void
    private_typeinfo.cpp.o(.rodata._ZTIDn) refers to private_typeinfo.cpp.o(.rodata._ZTVN10__cxxabiv123__fundamental_type_infoE) for vtable for __cxxabiv1::__fundamental_type_info
    private_typeinfo.cpp.o(.rodata._ZTIDn) refers to private_typeinfo.cpp.o(.rodata._ZTSDn) for typeinfo name for std::nullptr_t
    private_typeinfo.cpp.o(.rodata._ZTIPDn) refers to private_typeinfo.cpp.o(.rodata._ZTVN10__cxxabiv119__pointer_type_infoE) for vtable for __cxxabiv1::__pointer_type_info
    private_typeinfo.cpp.o(.rodata._ZTIPDn) refers to private_typeinfo.cpp.o(.rodata._ZTSPDn) for typeinfo name for std::nullptr_t*
    private_typeinfo.cpp.o(.rodata._ZTIPDn) refers to private_typeinfo.cpp.o(.rodata._ZTIDn) for typeinfo for std::nullptr_t
    private_typeinfo.cpp.o(.rodata._ZTIPKDn) refers to private_typeinfo.cpp.o(.rodata._ZTVN10__cxxabiv119__pointer_type_infoE) for vtable for __cxxabiv1::__pointer_type_info
    private_typeinfo.cpp.o(.rodata._ZTIPKDn) refers to private_typeinfo.cpp.o(.rodata._ZTSPKDn) for typeinfo name for std::nullptr_t const*
    private_typeinfo.cpp.o(.rodata._ZTIPKDn) refers to private_typeinfo.cpp.o(.rodata._ZTIDn) for typeinfo for std::nullptr_t
    private_typeinfo.cpp.o(.rodata._ZTIb) refers to private_typeinfo.cpp.o(.rodata._ZTVN10__cxxabiv123__fundamental_type_infoE) for vtable for __cxxabiv1::__fundamental_type_info
    private_typeinfo.cpp.o(.rodata._ZTIb) refers to private_typeinfo.cpp.o(.rodata._ZTSb) for typeinfo name for bool
    private_typeinfo.cpp.o(.rodata._ZTIPb) refers to private_typeinfo.cpp.o(.rodata._ZTVN10__cxxabiv119__pointer_type_infoE) for vtable for __cxxabiv1::__pointer_type_info
    private_typeinfo.cpp.o(.rodata._ZTIPb) refers to private_typeinfo.cpp.o(.rodata._ZTSPb) for typeinfo name for bool*
    private_typeinfo.cpp.o(.rodata._ZTIPb) refers to private_typeinfo.cpp.o(.rodata._ZTIb) for typeinfo for bool
    private_typeinfo.cpp.o(.rodata._ZTIPKb) refers to private_typeinfo.cpp.o(.rodata._ZTVN10__cxxabiv119__pointer_type_infoE) for vtable for __cxxabiv1::__pointer_type_info
    private_typeinfo.cpp.o(.rodata._ZTIPKb) refers to private_typeinfo.cpp.o(.rodata._ZTSPKb) for typeinfo name for bool const*
    private_typeinfo.cpp.o(.rodata._ZTIPKb) refers to private_typeinfo.cpp.o(.rodata._ZTIb) for typeinfo for bool
    private_typeinfo.cpp.o(.rodata._ZTIw) refers to private_typeinfo.cpp.o(.rodata._ZTVN10__cxxabiv123__fundamental_type_infoE) for vtable for __cxxabiv1::__fundamental_type_info
    private_typeinfo.cpp.o(.rodata._ZTIw) refers to private_typeinfo.cpp.o(.rodata._ZTSw) for typeinfo name for wchar_t
    private_typeinfo.cpp.o(.rodata._ZTIPw) refers to private_typeinfo.cpp.o(.rodata._ZTVN10__cxxabiv119__pointer_type_infoE) for vtable for __cxxabiv1::__pointer_type_info
    private_typeinfo.cpp.o(.rodata._ZTIPw) refers to private_typeinfo.cpp.o(.rodata._ZTSPw) for typeinfo name for wchar_t*
    private_typeinfo.cpp.o(.rodata._ZTIPw) refers to private_typeinfo.cpp.o(.rodata._ZTIw) for typeinfo for wchar_t
    private_typeinfo.cpp.o(.rodata._ZTIPKw) refers to private_typeinfo.cpp.o(.rodata._ZTVN10__cxxabiv119__pointer_type_infoE) for vtable for __cxxabiv1::__pointer_type_info
    private_typeinfo.cpp.o(.rodata._ZTIPKw) refers to private_typeinfo.cpp.o(.rodata._ZTSPKw) for typeinfo name for wchar_t const*
    private_typeinfo.cpp.o(.rodata._ZTIPKw) refers to private_typeinfo.cpp.o(.rodata._ZTIw) for typeinfo for wchar_t
    private_typeinfo.cpp.o(.rodata._ZTIc) refers to private_typeinfo.cpp.o(.rodata._ZTVN10__cxxabiv123__fundamental_type_infoE) for vtable for __cxxabiv1::__fundamental_type_info
    private_typeinfo.cpp.o(.rodata._ZTIc) refers to private_typeinfo.cpp.o(.rodata._ZTSc) for typeinfo name for char
    private_typeinfo.cpp.o(.rodata._ZTIPc) refers to private_typeinfo.cpp.o(.rodata._ZTVN10__cxxabiv119__pointer_type_infoE) for vtable for __cxxabiv1::__pointer_type_info
    private_typeinfo.cpp.o(.rodata._ZTIPc) refers to private_typeinfo.cpp.o(.rodata._ZTSPc) for typeinfo name for char*
    private_typeinfo.cpp.o(.rodata._ZTIPc) refers to private_typeinfo.cpp.o(.rodata._ZTIc) for typeinfo for char
    private_typeinfo.cpp.o(.rodata._ZTIPKc) refers to private_typeinfo.cpp.o(.rodata._ZTVN10__cxxabiv119__pointer_type_infoE) for vtable for __cxxabiv1::__pointer_type_info
    private_typeinfo.cpp.o(.rodata._ZTIPKc) refers to private_typeinfo.cpp.o(.rodata._ZTSPKc) for typeinfo name for char const*
    private_typeinfo.cpp.o(.rodata._ZTIPKc) refers to private_typeinfo.cpp.o(.rodata._ZTIc) for typeinfo for char
    private_typeinfo.cpp.o(.rodata._ZTIh) refers to private_typeinfo.cpp.o(.rodata._ZTVN10__cxxabiv123__fundamental_type_infoE) for vtable for __cxxabiv1::__fundamental_type_info
    private_typeinfo.cpp.o(.rodata._ZTIh) refers to private_typeinfo.cpp.o(.rodata._ZTSh) for typeinfo name for unsigned char
    private_typeinfo.cpp.o(.rodata._ZTIPh) refers to private_typeinfo.cpp.o(.rodata._ZTVN10__cxxabiv119__pointer_type_infoE) for vtable for __cxxabiv1::__pointer_type_info
    private_typeinfo.cpp.o(.rodata._ZTIPh) refers to private_typeinfo.cpp.o(.rodata._ZTSPh) for typeinfo name for unsigned char*
    private_typeinfo.cpp.o(.rodata._ZTIPh) refers to private_typeinfo.cpp.o(.rodata._ZTIh) for typeinfo for unsigned char
    private_typeinfo.cpp.o(.rodata._ZTIPKh) refers to private_typeinfo.cpp.o(.rodata._ZTVN10__cxxabiv119__pointer_type_infoE) for vtable for __cxxabiv1::__pointer_type_info
    private_typeinfo.cpp.o(.rodata._ZTIPKh) refers to private_typeinfo.cpp.o(.rodata._ZTSPKh) for typeinfo name for unsigned char const*
    private_typeinfo.cpp.o(.rodata._ZTIPKh) refers to private_typeinfo.cpp.o(.rodata._ZTIh) for typeinfo for unsigned char
    private_typeinfo.cpp.o(.rodata._ZTIa) refers to private_typeinfo.cpp.o(.rodata._ZTVN10__cxxabiv123__fundamental_type_infoE) for vtable for __cxxabiv1::__fundamental_type_info
    private_typeinfo.cpp.o(.rodata._ZTIa) refers to private_typeinfo.cpp.o(.rodata._ZTSa) for typeinfo name for signed char
    private_typeinfo.cpp.o(.rodata._ZTIPa) refers to private_typeinfo.cpp.o(.rodata._ZTVN10__cxxabiv119__pointer_type_infoE) for vtable for __cxxabiv1::__pointer_type_info
    private_typeinfo.cpp.o(.rodata._ZTIPa) refers to private_typeinfo.cpp.o(.rodata._ZTSPa) for typeinfo name for signed char*
    private_typeinfo.cpp.o(.rodata._ZTIPa) refers to private_typeinfo.cpp.o(.rodata._ZTIa) for typeinfo for signed char
    private_typeinfo.cpp.o(.rodata._ZTIPKa) refers to private_typeinfo.cpp.o(.rodata._ZTVN10__cxxabiv119__pointer_type_infoE) for vtable for __cxxabiv1::__pointer_type_info
    private_typeinfo.cpp.o(.rodata._ZTIPKa) refers to private_typeinfo.cpp.o(.rodata._ZTSPKa) for typeinfo name for signed char const*
    private_typeinfo.cpp.o(.rodata._ZTIPKa) refers to private_typeinfo.cpp.o(.rodata._ZTIa) for typeinfo for signed char
    private_typeinfo.cpp.o(.rodata._ZTIs) refers to private_typeinfo.cpp.o(.rodata._ZTVN10__cxxabiv123__fundamental_type_infoE) for vtable for __cxxabiv1::__fundamental_type_info
    private_typeinfo.cpp.o(.rodata._ZTIs) refers to private_typeinfo.cpp.o(.rodata._ZTSs) for typeinfo name for short
    private_typeinfo.cpp.o(.rodata._ZTIPs) refers to private_typeinfo.cpp.o(.rodata._ZTVN10__cxxabiv119__pointer_type_infoE) for vtable for __cxxabiv1::__pointer_type_info
    private_typeinfo.cpp.o(.rodata._ZTIPs) refers to private_typeinfo.cpp.o(.rodata._ZTSPs) for typeinfo name for short*
    private_typeinfo.cpp.o(.rodata._ZTIPs) refers to private_typeinfo.cpp.o(.rodata._ZTIs) for typeinfo for short
    private_typeinfo.cpp.o(.rodata._ZTIPKs) refers to private_typeinfo.cpp.o(.rodata._ZTVN10__cxxabiv119__pointer_type_infoE) for vtable for __cxxabiv1::__pointer_type_info
    private_typeinfo.cpp.o(.rodata._ZTIPKs) refers to private_typeinfo.cpp.o(.rodata._ZTSPKs) for typeinfo name for short const*
    private_typeinfo.cpp.o(.rodata._ZTIPKs) refers to private_typeinfo.cpp.o(.rodata._ZTIs) for typeinfo for short
    private_typeinfo.cpp.o(.rodata._ZTIt) refers to private_typeinfo.cpp.o(.rodata._ZTVN10__cxxabiv123__fundamental_type_infoE) for vtable for __cxxabiv1::__fundamental_type_info
    private_typeinfo.cpp.o(.rodata._ZTIt) refers to private_typeinfo.cpp.o(.rodata._ZTSt) for typeinfo name for unsigned short
    private_typeinfo.cpp.o(.rodata._ZTIPt) refers to private_typeinfo.cpp.o(.rodata._ZTVN10__cxxabiv119__pointer_type_infoE) for vtable for __cxxabiv1::__pointer_type_info
    private_typeinfo.cpp.o(.rodata._ZTIPt) refers to private_typeinfo.cpp.o(.rodata._ZTSPt) for typeinfo name for unsigned short*
    private_typeinfo.cpp.o(.rodata._ZTIPt) refers to private_typeinfo.cpp.o(.rodata._ZTIt) for typeinfo for unsigned short
    private_typeinfo.cpp.o(.rodata._ZTIPKt) refers to private_typeinfo.cpp.o(.rodata._ZTVN10__cxxabiv119__pointer_type_infoE) for vtable for __cxxabiv1::__pointer_type_info
    private_typeinfo.cpp.o(.rodata._ZTIPKt) refers to private_typeinfo.cpp.o(.rodata._ZTSPKt) for typeinfo name for unsigned short const*
    private_typeinfo.cpp.o(.rodata._ZTIPKt) refers to private_typeinfo.cpp.o(.rodata._ZTIt) for typeinfo for unsigned short
    private_typeinfo.cpp.o(.rodata._ZTIi) refers to private_typeinfo.cpp.o(.rodata._ZTVN10__cxxabiv123__fundamental_type_infoE) for vtable for __cxxabiv1::__fundamental_type_info
    private_typeinfo.cpp.o(.rodata._ZTIi) refers to private_typeinfo.cpp.o(.rodata._ZTSi) for typeinfo name for int
    private_typeinfo.cpp.o(.rodata._ZTIPi) refers to private_typeinfo.cpp.o(.rodata._ZTVN10__cxxabiv119__pointer_type_infoE) for vtable for __cxxabiv1::__pointer_type_info
    private_typeinfo.cpp.o(.rodata._ZTIPi) refers to private_typeinfo.cpp.o(.rodata._ZTSPi) for typeinfo name for int*
    private_typeinfo.cpp.o(.rodata._ZTIPi) refers to private_typeinfo.cpp.o(.rodata._ZTIi) for typeinfo for int
    private_typeinfo.cpp.o(.rodata._ZTIPKi) refers to private_typeinfo.cpp.o(.rodata._ZTVN10__cxxabiv119__pointer_type_infoE) for vtable for __cxxabiv1::__pointer_type_info
    private_typeinfo.cpp.o(.rodata._ZTIPKi) refers to private_typeinfo.cpp.o(.rodata._ZTSPKi) for typeinfo name for int const*
    private_typeinfo.cpp.o(.rodata._ZTIPKi) refers to private_typeinfo.cpp.o(.rodata._ZTIi) for typeinfo for int
    private_typeinfo.cpp.o(.rodata._ZTIj) refers to private_typeinfo.cpp.o(.rodata._ZTVN10__cxxabiv123__fundamental_type_infoE) for vtable for __cxxabiv1::__fundamental_type_info
    private_typeinfo.cpp.o(.rodata._ZTIj) refers to private_typeinfo.cpp.o(.rodata._ZTSj) for typeinfo name for unsigned int
    private_typeinfo.cpp.o(.rodata._ZTIPj) refers to private_typeinfo.cpp.o(.rodata._ZTVN10__cxxabiv119__pointer_type_infoE) for vtable for __cxxabiv1::__pointer_type_info
    private_typeinfo.cpp.o(.rodata._ZTIPj) refers to private_typeinfo.cpp.o(.rodata._ZTSPj) for typeinfo name for unsigned int*
    private_typeinfo.cpp.o(.rodata._ZTIPj) refers to private_typeinfo.cpp.o(.rodata._ZTIj) for typeinfo for unsigned int
    private_typeinfo.cpp.o(.rodata._ZTIPKj) refers to private_typeinfo.cpp.o(.rodata._ZTVN10__cxxabiv119__pointer_type_infoE) for vtable for __cxxabiv1::__pointer_type_info
    private_typeinfo.cpp.o(.rodata._ZTIPKj) refers to private_typeinfo.cpp.o(.rodata._ZTSPKj) for typeinfo name for unsigned int const*
    private_typeinfo.cpp.o(.rodata._ZTIPKj) refers to private_typeinfo.cpp.o(.rodata._ZTIj) for typeinfo for unsigned int
    private_typeinfo.cpp.o(.rodata._ZTIl) refers to private_typeinfo.cpp.o(.rodata._ZTVN10__cxxabiv123__fundamental_type_infoE) for vtable for __cxxabiv1::__fundamental_type_info
    private_typeinfo.cpp.o(.rodata._ZTIl) refers to private_typeinfo.cpp.o(.rodata._ZTSl) for typeinfo name for long
    private_typeinfo.cpp.o(.rodata._ZTIPl) refers to private_typeinfo.cpp.o(.rodata._ZTVN10__cxxabiv119__pointer_type_infoE) for vtable for __cxxabiv1::__pointer_type_info
    private_typeinfo.cpp.o(.rodata._ZTIPl) refers to private_typeinfo.cpp.o(.rodata._ZTSPl) for typeinfo name for long*
    private_typeinfo.cpp.o(.rodata._ZTIPl) refers to private_typeinfo.cpp.o(.rodata._ZTIl) for typeinfo for long
    private_typeinfo.cpp.o(.rodata._ZTIPKl) refers to private_typeinfo.cpp.o(.rodata._ZTVN10__cxxabiv119__pointer_type_infoE) for vtable for __cxxabiv1::__pointer_type_info
    private_typeinfo.cpp.o(.rodata._ZTIPKl) refers to private_typeinfo.cpp.o(.rodata._ZTSPKl) for typeinfo name for long const*
    private_typeinfo.cpp.o(.rodata._ZTIPKl) refers to private_typeinfo.cpp.o(.rodata._ZTIl) for typeinfo for long
    private_typeinfo.cpp.o(.rodata._ZTIm) refers to private_typeinfo.cpp.o(.rodata._ZTVN10__cxxabiv123__fundamental_type_infoE) for vtable for __cxxabiv1::__fundamental_type_info
    private_typeinfo.cpp.o(.rodata._ZTIm) refers to private_typeinfo.cpp.o(.rodata._ZTSm) for typeinfo name for unsigned long
    private_typeinfo.cpp.o(.rodata._ZTIPm) refers to private_typeinfo.cpp.o(.rodata._ZTVN10__cxxabiv119__pointer_type_infoE) for vtable for __cxxabiv1::__pointer_type_info
    private_typeinfo.cpp.o(.rodata._ZTIPm) refers to private_typeinfo.cpp.o(.rodata._ZTSPm) for typeinfo name for unsigned long*
    private_typeinfo.cpp.o(.rodata._ZTIPm) refers to private_typeinfo.cpp.o(.rodata._ZTIm) for typeinfo for unsigned long
    private_typeinfo.cpp.o(.rodata._ZTIPKm) refers to private_typeinfo.cpp.o(.rodata._ZTVN10__cxxabiv119__pointer_type_infoE) for vtable for __cxxabiv1::__pointer_type_info
    private_typeinfo.cpp.o(.rodata._ZTIPKm) refers to private_typeinfo.cpp.o(.rodata._ZTSPKm) for typeinfo name for unsigned long const*
    private_typeinfo.cpp.o(.rodata._ZTIPKm) refers to private_typeinfo.cpp.o(.rodata._ZTIm) for typeinfo for unsigned long
    private_typeinfo.cpp.o(.rodata._ZTIx) refers to private_typeinfo.cpp.o(.rodata._ZTVN10__cxxabiv123__fundamental_type_infoE) for vtable for __cxxabiv1::__fundamental_type_info
    private_typeinfo.cpp.o(.rodata._ZTIx) refers to private_typeinfo.cpp.o(.rodata._ZTSx) for typeinfo name for long long
    private_typeinfo.cpp.o(.rodata._ZTIPx) refers to private_typeinfo.cpp.o(.rodata._ZTVN10__cxxabiv119__pointer_type_infoE) for vtable for __cxxabiv1::__pointer_type_info
    private_typeinfo.cpp.o(.rodata._ZTIPx) refers to private_typeinfo.cpp.o(.rodata._ZTSPx) for typeinfo name for long long*
    private_typeinfo.cpp.o(.rodata._ZTIPx) refers to private_typeinfo.cpp.o(.rodata._ZTIx) for typeinfo for long long
    private_typeinfo.cpp.o(.rodata._ZTIPKx) refers to private_typeinfo.cpp.o(.rodata._ZTVN10__cxxabiv119__pointer_type_infoE) for vtable for __cxxabiv1::__pointer_type_info
    private_typeinfo.cpp.o(.rodata._ZTIPKx) refers to private_typeinfo.cpp.o(.rodata._ZTSPKx) for typeinfo name for long long const*
    private_typeinfo.cpp.o(.rodata._ZTIPKx) refers to private_typeinfo.cpp.o(.rodata._ZTIx) for typeinfo for long long
    private_typeinfo.cpp.o(.rodata._ZTIy) refers to private_typeinfo.cpp.o(.rodata._ZTVN10__cxxabiv123__fundamental_type_infoE) for vtable for __cxxabiv1::__fundamental_type_info
    private_typeinfo.cpp.o(.rodata._ZTIy) refers to private_typeinfo.cpp.o(.rodata._ZTSy) for typeinfo name for unsigned long long
    private_typeinfo.cpp.o(.rodata._ZTIPy) refers to private_typeinfo.cpp.o(.rodata._ZTVN10__cxxabiv119__pointer_type_infoE) for vtable for __cxxabiv1::__pointer_type_info
    private_typeinfo.cpp.o(.rodata._ZTIPy) refers to private_typeinfo.cpp.o(.rodata._ZTSPy) for typeinfo name for unsigned long long*
    private_typeinfo.cpp.o(.rodata._ZTIPy) refers to private_typeinfo.cpp.o(.rodata._ZTIy) for typeinfo for unsigned long long
    private_typeinfo.cpp.o(.rodata._ZTIPKy) refers to private_typeinfo.cpp.o(.rodata._ZTVN10__cxxabiv119__pointer_type_infoE) for vtable for __cxxabiv1::__pointer_type_info
    private_typeinfo.cpp.o(.rodata._ZTIPKy) refers to private_typeinfo.cpp.o(.rodata._ZTSPKy) for typeinfo name for unsigned long long const*
    private_typeinfo.cpp.o(.rodata._ZTIPKy) refers to private_typeinfo.cpp.o(.rodata._ZTIy) for typeinfo for unsigned long long
    private_typeinfo.cpp.o(.rodata._ZTIn) refers to private_typeinfo.cpp.o(.rodata._ZTVN10__cxxabiv123__fundamental_type_infoE) for vtable for __cxxabiv1::__fundamental_type_info
    private_typeinfo.cpp.o(.rodata._ZTIn) refers to private_typeinfo.cpp.o(.rodata._ZTSn) for typeinfo name for __int128
    private_typeinfo.cpp.o(.rodata._ZTIPn) refers to private_typeinfo.cpp.o(.rodata._ZTVN10__cxxabiv119__pointer_type_infoE) for vtable for __cxxabiv1::__pointer_type_info
    private_typeinfo.cpp.o(.rodata._ZTIPn) refers to private_typeinfo.cpp.o(.rodata._ZTSPn) for typeinfo name for __int128*
    private_typeinfo.cpp.o(.rodata._ZTIPn) refers to private_typeinfo.cpp.o(.rodata._ZTIn) for typeinfo for __int128
    private_typeinfo.cpp.o(.rodata._ZTIPKn) refers to private_typeinfo.cpp.o(.rodata._ZTVN10__cxxabiv119__pointer_type_infoE) for vtable for __cxxabiv1::__pointer_type_info
    private_typeinfo.cpp.o(.rodata._ZTIPKn) refers to private_typeinfo.cpp.o(.rodata._ZTSPKn) for typeinfo name for __int128 const*
    private_typeinfo.cpp.o(.rodata._ZTIPKn) refers to private_typeinfo.cpp.o(.rodata._ZTIn) for typeinfo for __int128
    private_typeinfo.cpp.o(.rodata._ZTIo) refers to private_typeinfo.cpp.o(.rodata._ZTVN10__cxxabiv123__fundamental_type_infoE) for vtable for __cxxabiv1::__fundamental_type_info
    private_typeinfo.cpp.o(.rodata._ZTIo) refers to private_typeinfo.cpp.o(.rodata._ZTSo) for typeinfo name for unsigned __int128
    private_typeinfo.cpp.o(.rodata._ZTIPo) refers to private_typeinfo.cpp.o(.rodata._ZTVN10__cxxabiv119__pointer_type_infoE) for vtable for __cxxabiv1::__pointer_type_info
    private_typeinfo.cpp.o(.rodata._ZTIPo) refers to private_typeinfo.cpp.o(.rodata._ZTSPo) for typeinfo name for unsigned __int128*
    private_typeinfo.cpp.o(.rodata._ZTIPo) refers to private_typeinfo.cpp.o(.rodata._ZTIo) for typeinfo for unsigned __int128
    private_typeinfo.cpp.o(.rodata._ZTIPKo) refers to private_typeinfo.cpp.o(.rodata._ZTVN10__cxxabiv119__pointer_type_infoE) for vtable for __cxxabiv1::__pointer_type_info
    private_typeinfo.cpp.o(.rodata._ZTIPKo) refers to private_typeinfo.cpp.o(.rodata._ZTSPKo) for typeinfo name for unsigned __int128 const*
    private_typeinfo.cpp.o(.rodata._ZTIPKo) refers to private_typeinfo.cpp.o(.rodata._ZTIo) for typeinfo for unsigned __int128
    private_typeinfo.cpp.o(.rodata._ZTIDh) refers to private_typeinfo.cpp.o(.rodata._ZTVN10__cxxabiv123__fundamental_type_infoE) for vtable for __cxxabiv1::__fundamental_type_info
    private_typeinfo.cpp.o(.rodata._ZTIDh) refers to private_typeinfo.cpp.o(.rodata._ZTSDh) for typeinfo name for half
    private_typeinfo.cpp.o(.rodata._ZTIPDh) refers to private_typeinfo.cpp.o(.rodata._ZTVN10__cxxabiv119__pointer_type_infoE) for vtable for __cxxabiv1::__pointer_type_info
    private_typeinfo.cpp.o(.rodata._ZTIPDh) refers to private_typeinfo.cpp.o(.rodata._ZTSPDh) for typeinfo name for half*
    private_typeinfo.cpp.o(.rodata._ZTIPDh) refers to private_typeinfo.cpp.o(.rodata._ZTIDh) for typeinfo for half
    private_typeinfo.cpp.o(.rodata._ZTIPKDh) refers to private_typeinfo.cpp.o(.rodata._ZTVN10__cxxabiv119__pointer_type_infoE) for vtable for __cxxabiv1::__pointer_type_info
    private_typeinfo.cpp.o(.rodata._ZTIPKDh) refers to private_typeinfo.cpp.o(.rodata._ZTSPKDh) for typeinfo name for half const*
    private_typeinfo.cpp.o(.rodata._ZTIPKDh) refers to private_typeinfo.cpp.o(.rodata._ZTIDh) for typeinfo for half
    private_typeinfo.cpp.o(.rodata._ZTIf) refers to private_typeinfo.cpp.o(.rodata._ZTVN10__cxxabiv123__fundamental_type_infoE) for vtable for __cxxabiv1::__fundamental_type_info
    private_typeinfo.cpp.o(.rodata._ZTIf) refers to private_typeinfo.cpp.o(.rodata._ZTSf) for typeinfo name for float
    private_typeinfo.cpp.o(.rodata._ZTIPf) refers to private_typeinfo.cpp.o(.rodata._ZTVN10__cxxabiv119__pointer_type_infoE) for vtable for __cxxabiv1::__pointer_type_info
    private_typeinfo.cpp.o(.rodata._ZTIPf) refers to private_typeinfo.cpp.o(.rodata._ZTSPf) for typeinfo name for float*
    private_typeinfo.cpp.o(.rodata._ZTIPf) refers to private_typeinfo.cpp.o(.rodata._ZTIf) for typeinfo for float
    private_typeinfo.cpp.o(.rodata._ZTIPKf) refers to private_typeinfo.cpp.o(.rodata._ZTVN10__cxxabiv119__pointer_type_infoE) for vtable for __cxxabiv1::__pointer_type_info
    private_typeinfo.cpp.o(.rodata._ZTIPKf) refers to private_typeinfo.cpp.o(.rodata._ZTSPKf) for typeinfo name for float const*
    private_typeinfo.cpp.o(.rodata._ZTIPKf) refers to private_typeinfo.cpp.o(.rodata._ZTIf) for typeinfo for float
    private_typeinfo.cpp.o(.rodata._ZTId) refers to private_typeinfo.cpp.o(.rodata._ZTVN10__cxxabiv123__fundamental_type_infoE) for vtable for __cxxabiv1::__fundamental_type_info
    private_typeinfo.cpp.o(.rodata._ZTId) refers to private_typeinfo.cpp.o(.rodata._ZTSd) for typeinfo name for double
    private_typeinfo.cpp.o(.rodata._ZTIPd) refers to private_typeinfo.cpp.o(.rodata._ZTVN10__cxxabiv119__pointer_type_infoE) for vtable for __cxxabiv1::__pointer_type_info
    private_typeinfo.cpp.o(.rodata._ZTIPd) refers to private_typeinfo.cpp.o(.rodata._ZTSPd) for typeinfo name for double*
    private_typeinfo.cpp.o(.rodata._ZTIPd) refers to private_typeinfo.cpp.o(.rodata._ZTId) for typeinfo for double
    private_typeinfo.cpp.o(.rodata._ZTIPKd) refers to private_typeinfo.cpp.o(.rodata._ZTVN10__cxxabiv119__pointer_type_infoE) for vtable for __cxxabiv1::__pointer_type_info
    private_typeinfo.cpp.o(.rodata._ZTIPKd) refers to private_typeinfo.cpp.o(.rodata._ZTSPKd) for typeinfo name for double const*
    private_typeinfo.cpp.o(.rodata._ZTIPKd) refers to private_typeinfo.cpp.o(.rodata._ZTId) for typeinfo for double
    private_typeinfo.cpp.o(.rodata._ZTIe) refers to private_typeinfo.cpp.o(.rodata._ZTVN10__cxxabiv123__fundamental_type_infoE) for vtable for __cxxabiv1::__fundamental_type_info
    private_typeinfo.cpp.o(.rodata._ZTIe) refers to private_typeinfo.cpp.o(.rodata._ZTSe) for typeinfo name for long double
    private_typeinfo.cpp.o(.rodata._ZTIPe) refers to private_typeinfo.cpp.o(.rodata._ZTVN10__cxxabiv119__pointer_type_infoE) for vtable for __cxxabiv1::__pointer_type_info
    private_typeinfo.cpp.o(.rodata._ZTIPe) refers to private_typeinfo.cpp.o(.rodata._ZTSPe) for typeinfo name for long double*
    private_typeinfo.cpp.o(.rodata._ZTIPe) refers to private_typeinfo.cpp.o(.rodata._ZTIe) for typeinfo for long double
    private_typeinfo.cpp.o(.rodata._ZTIPKe) refers to private_typeinfo.cpp.o(.rodata._ZTVN10__cxxabiv119__pointer_type_infoE) for vtable for __cxxabiv1::__pointer_type_info
    private_typeinfo.cpp.o(.rodata._ZTIPKe) refers to private_typeinfo.cpp.o(.rodata._ZTSPKe) for typeinfo name for long double const*
    private_typeinfo.cpp.o(.rodata._ZTIPKe) refers to private_typeinfo.cpp.o(.rodata._ZTIe) for typeinfo for long double
    private_typeinfo.cpp.o(.rodata._ZTIg) refers to private_typeinfo.cpp.o(.rodata._ZTVN10__cxxabiv123__fundamental_type_infoE) for vtable for __cxxabiv1::__fundamental_type_info
    private_typeinfo.cpp.o(.rodata._ZTIg) refers to private_typeinfo.cpp.o(.rodata._ZTSg) for typeinfo name for __float128
    private_typeinfo.cpp.o(.rodata._ZTIPg) refers to private_typeinfo.cpp.o(.rodata._ZTVN10__cxxabiv119__pointer_type_infoE) for vtable for __cxxabiv1::__pointer_type_info
    private_typeinfo.cpp.o(.rodata._ZTIPg) refers to private_typeinfo.cpp.o(.rodata._ZTSPg) for typeinfo name for __float128*
    private_typeinfo.cpp.o(.rodata._ZTIPg) refers to private_typeinfo.cpp.o(.rodata._ZTIg) for typeinfo for __float128
    private_typeinfo.cpp.o(.rodata._ZTIPKg) refers to private_typeinfo.cpp.o(.rodata._ZTVN10__cxxabiv119__pointer_type_infoE) for vtable for __cxxabiv1::__pointer_type_info
    private_typeinfo.cpp.o(.rodata._ZTIPKg) refers to private_typeinfo.cpp.o(.rodata._ZTSPKg) for typeinfo name for __float128 const*
    private_typeinfo.cpp.o(.rodata._ZTIPKg) refers to private_typeinfo.cpp.o(.rodata._ZTIg) for typeinfo for __float128
    private_typeinfo.cpp.o(.rodata._ZTIDu) refers to private_typeinfo.cpp.o(.rodata._ZTVN10__cxxabiv123__fundamental_type_infoE) for vtable for __cxxabiv1::__fundamental_type_info
    private_typeinfo.cpp.o(.rodata._ZTIDu) refers to private_typeinfo.cpp.o(.rodata._ZTSDu) for typeinfo name for char8_t
    private_typeinfo.cpp.o(.rodata._ZTIPDu) refers to private_typeinfo.cpp.o(.rodata._ZTVN10__cxxabiv119__pointer_type_infoE) for vtable for __cxxabiv1::__pointer_type_info
    private_typeinfo.cpp.o(.rodata._ZTIPDu) refers to private_typeinfo.cpp.o(.rodata._ZTSPDu) for typeinfo name for char8_t*
    private_typeinfo.cpp.o(.rodata._ZTIPDu) refers to private_typeinfo.cpp.o(.rodata._ZTIDu) for typeinfo for char8_t
    private_typeinfo.cpp.o(.rodata._ZTIPKDu) refers to private_typeinfo.cpp.o(.rodata._ZTVN10__cxxabiv119__pointer_type_infoE) for vtable for __cxxabiv1::__pointer_type_info
    private_typeinfo.cpp.o(.rodata._ZTIPKDu) refers to private_typeinfo.cpp.o(.rodata._ZTSPKDu) for typeinfo name for char8_t const*
    private_typeinfo.cpp.o(.rodata._ZTIPKDu) refers to private_typeinfo.cpp.o(.rodata._ZTIDu) for typeinfo for char8_t
    private_typeinfo.cpp.o(.rodata._ZTIDs) refers to private_typeinfo.cpp.o(.rodata._ZTVN10__cxxabiv123__fundamental_type_infoE) for vtable for __cxxabiv1::__fundamental_type_info
    private_typeinfo.cpp.o(.rodata._ZTIDs) refers to private_typeinfo.cpp.o(.rodata._ZTSDs) for typeinfo name for char16_t
    private_typeinfo.cpp.o(.rodata._ZTIPDs) refers to private_typeinfo.cpp.o(.rodata._ZTVN10__cxxabiv119__pointer_type_infoE) for vtable for __cxxabiv1::__pointer_type_info
    private_typeinfo.cpp.o(.rodata._ZTIPDs) refers to private_typeinfo.cpp.o(.rodata._ZTSPDs) for typeinfo name for char16_t*
    private_typeinfo.cpp.o(.rodata._ZTIPDs) refers to private_typeinfo.cpp.o(.rodata._ZTIDs) for typeinfo for char16_t
    private_typeinfo.cpp.o(.rodata._ZTIPKDs) refers to private_typeinfo.cpp.o(.rodata._ZTVN10__cxxabiv119__pointer_type_infoE) for vtable for __cxxabiv1::__pointer_type_info
    private_typeinfo.cpp.o(.rodata._ZTIPKDs) refers to private_typeinfo.cpp.o(.rodata._ZTSPKDs) for typeinfo name for char16_t const*
    private_typeinfo.cpp.o(.rodata._ZTIPKDs) refers to private_typeinfo.cpp.o(.rodata._ZTIDs) for typeinfo for char16_t
    private_typeinfo.cpp.o(.rodata._ZTIDi) refers to private_typeinfo.cpp.o(.rodata._ZTVN10__cxxabiv123__fundamental_type_infoE) for vtable for __cxxabiv1::__fundamental_type_info
    private_typeinfo.cpp.o(.rodata._ZTIDi) refers to private_typeinfo.cpp.o(.rodata._ZTSDi) for typeinfo name for char32_t
    private_typeinfo.cpp.o(.rodata._ZTIPDi) refers to private_typeinfo.cpp.o(.rodata._ZTVN10__cxxabiv119__pointer_type_infoE) for vtable for __cxxabiv1::__pointer_type_info
    private_typeinfo.cpp.o(.rodata._ZTIPDi) refers to private_typeinfo.cpp.o(.rodata._ZTSPDi) for typeinfo name for char32_t*
    private_typeinfo.cpp.o(.rodata._ZTIPDi) refers to private_typeinfo.cpp.o(.rodata._ZTIDi) for typeinfo for char32_t
    private_typeinfo.cpp.o(.rodata._ZTIPKDi) refers to private_typeinfo.cpp.o(.rodata._ZTVN10__cxxabiv119__pointer_type_infoE) for vtable for __cxxabiv1::__pointer_type_info
    private_typeinfo.cpp.o(.rodata._ZTIPKDi) refers to private_typeinfo.cpp.o(.rodata._ZTSPKDi) for typeinfo name for char32_t const*
    private_typeinfo.cpp.o(.rodata._ZTIPKDi) refers to private_typeinfo.cpp.o(.rodata._ZTIDi) for typeinfo for char32_t
    private_typeinfo.cpp.o(.rodata._ZTVN10__cxxabiv117__array_type_infoE) refers to private_typeinfo.cpp.o(.rodata._ZTIN10__cxxabiv117__array_type_infoE) for typeinfo for __cxxabiv1::__array_type_info
    private_typeinfo.cpp.o(.rodata._ZTVN10__cxxabiv117__array_type_infoE) refers to private_typeinfo.cpp.o(.text._ZN10__cxxabiv116__shim_type_infoD2Ev) for __cxxabiv1::__shim_type_info::~__shim_type_info__sub_object()
    private_typeinfo.cpp.o(.rodata._ZTVN10__cxxabiv117__array_type_infoE) refers to private_typeinfo.cpp.o(.text._ZN10__cxxabiv117__array_type_infoD0Ev) for __cxxabiv1::__array_type_info::~__array_type_info__deallocating()
    private_typeinfo.cpp.o(.rodata._ZTVN10__cxxabiv117__array_type_infoE) refers to private_typeinfo.cpp.o(.text._ZNK10__cxxabiv116__shim_type_info5noop1Ev) for __cxxabiv1::__shim_type_info::noop1() const
    private_typeinfo.cpp.o(.rodata._ZTVN10__cxxabiv117__array_type_infoE) refers to private_typeinfo.cpp.o(.text._ZNK10__cxxabiv116__shim_type_info5noop2Ev) for __cxxabiv1::__shim_type_info::noop2() const
    private_typeinfo.cpp.o(.rodata._ZTVN10__cxxabiv117__array_type_infoE) refers to private_typeinfo.cpp.o(.text._ZNK10__cxxabiv117__array_type_info9can_catchEPKNS_16__shim_type_infoERPv) for __cxxabiv1::__array_type_info::can_catch(__cxxabiv1::__shim_type_info const*, void*&) const
    private_typeinfo.cpp.o(.rodata._ZTIN10__cxxabiv117__array_type_infoE) refers to private_typeinfo.cpp.o(.rodata._ZTVN10__cxxabiv120__si_class_type_infoE) for vtable for __cxxabiv1::__si_class_type_info
    private_typeinfo.cpp.o(.rodata._ZTIN10__cxxabiv117__array_type_infoE) refers to private_typeinfo.cpp.o(.rodata._ZTSN10__cxxabiv117__array_type_infoE) for typeinfo name for __cxxabiv1::__array_type_info
    private_typeinfo.cpp.o(.rodata._ZTIN10__cxxabiv117__array_type_infoE) refers to private_typeinfo.cpp.o(.rodata._ZTIN10__cxxabiv116__shim_type_infoE) for typeinfo for __cxxabiv1::__shim_type_info
    private_typeinfo.cpp.o(.rodata._ZTVN10__cxxabiv120__function_type_infoE) refers to private_typeinfo.cpp.o(.rodata._ZTIN10__cxxabiv120__function_type_infoE) for typeinfo for __cxxabiv1::__function_type_info
    private_typeinfo.cpp.o(.rodata._ZTVN10__cxxabiv120__function_type_infoE) refers to private_typeinfo.cpp.o(.text._ZN10__cxxabiv116__shim_type_infoD2Ev) for __cxxabiv1::__shim_type_info::~__shim_type_info__sub_object()
    private_typeinfo.cpp.o(.rodata._ZTVN10__cxxabiv120__function_type_infoE) refers to private_typeinfo.cpp.o(.text._ZN10__cxxabiv120__function_type_infoD0Ev) for __cxxabiv1::__function_type_info::~__function_type_info__deallocating()
    private_typeinfo.cpp.o(.rodata._ZTVN10__cxxabiv120__function_type_infoE) refers to private_typeinfo.cpp.o(.text._ZNK10__cxxabiv116__shim_type_info5noop1Ev) for __cxxabiv1::__shim_type_info::noop1() const
    private_typeinfo.cpp.o(.rodata._ZTVN10__cxxabiv120__function_type_infoE) refers to private_typeinfo.cpp.o(.text._ZNK10__cxxabiv116__shim_type_info5noop2Ev) for __cxxabiv1::__shim_type_info::noop2() const
    private_typeinfo.cpp.o(.rodata._ZTVN10__cxxabiv120__function_type_infoE) refers to private_typeinfo.cpp.o(.text._ZNK10__cxxabiv120__function_type_info9can_catchEPKNS_16__shim_type_infoERPv) for __cxxabiv1::__function_type_info::can_catch(__cxxabiv1::__shim_type_info const*, void*&) const
    private_typeinfo.cpp.o(.rodata._ZTVN10__cxxabiv116__enum_type_infoE) refers to private_typeinfo.cpp.o(.rodata._ZTIN10__cxxabiv116__enum_type_infoE) for typeinfo for __cxxabiv1::__enum_type_info
    private_typeinfo.cpp.o(.rodata._ZTVN10__cxxabiv116__enum_type_infoE) refers to private_typeinfo.cpp.o(.text._ZN10__cxxabiv116__shim_type_infoD2Ev) for __cxxabiv1::__shim_type_info::~__shim_type_info__sub_object()
    private_typeinfo.cpp.o(.rodata._ZTVN10__cxxabiv116__enum_type_infoE) refers to private_typeinfo.cpp.o(.text._ZN10__cxxabiv116__enum_type_infoD0Ev) for __cxxabiv1::__enum_type_info::~__enum_type_info__deallocating()
    private_typeinfo.cpp.o(.rodata._ZTVN10__cxxabiv116__enum_type_infoE) refers to private_typeinfo.cpp.o(.text._ZNK10__cxxabiv116__shim_type_info5noop1Ev) for __cxxabiv1::__shim_type_info::noop1() const
    private_typeinfo.cpp.o(.rodata._ZTVN10__cxxabiv116__enum_type_infoE) refers to private_typeinfo.cpp.o(.text._ZNK10__cxxabiv116__shim_type_info5noop2Ev) for __cxxabiv1::__shim_type_info::noop2() const
    private_typeinfo.cpp.o(.rodata._ZTVN10__cxxabiv116__enum_type_infoE) refers to private_typeinfo.cpp.o(.text._ZNK10__cxxabiv116__enum_type_info9can_catchEPKNS_16__shim_type_infoERPv) for __cxxabiv1::__enum_type_info::can_catch(__cxxabiv1::__shim_type_info const*, void*&) const
    private_typeinfo.cpp.o(.rodata._ZTIN10__cxxabiv116__enum_type_infoE) refers to private_typeinfo.cpp.o(.rodata._ZTVN10__cxxabiv120__si_class_type_infoE) for vtable for __cxxabiv1::__si_class_type_info
    private_typeinfo.cpp.o(.rodata._ZTIN10__cxxabiv116__enum_type_infoE) refers to private_typeinfo.cpp.o(.rodata._ZTSN10__cxxabiv116__enum_type_infoE) for typeinfo name for __cxxabiv1::__enum_type_info
    private_typeinfo.cpp.o(.rodata._ZTIN10__cxxabiv116__enum_type_infoE) refers to private_typeinfo.cpp.o(.rodata._ZTIN10__cxxabiv116__shim_type_infoE) for typeinfo for __cxxabiv1::__shim_type_info
    private_typeinfo.cpp.o(.rodata._ZTVN10__cxxabiv117__class_type_infoE) refers to private_typeinfo.cpp.o(.rodata._ZTIN10__cxxabiv117__class_type_infoE) for typeinfo for __cxxabiv1::__class_type_info
    private_typeinfo.cpp.o(.rodata._ZTVN10__cxxabiv117__class_type_infoE) refers to private_typeinfo.cpp.o(.text._ZN10__cxxabiv116__shim_type_infoD2Ev) for __cxxabiv1::__shim_type_info::~__shim_type_info__sub_object()
    private_typeinfo.cpp.o(.rodata._ZTVN10__cxxabiv117__class_type_infoE) refers to private_typeinfo.cpp.o(.text._ZN10__cxxabiv117__class_type_infoD0Ev) for __cxxabiv1::__class_type_info::~__class_type_info__deallocating()
    private_typeinfo.cpp.o(.rodata._ZTVN10__cxxabiv117__class_type_infoE) refers to private_typeinfo.cpp.o(.text._ZNK10__cxxabiv116__shim_type_info5noop1Ev) for __cxxabiv1::__shim_type_info::noop1() const
    private_typeinfo.cpp.o(.rodata._ZTVN10__cxxabiv117__class_type_infoE) refers to private_typeinfo.cpp.o(.text._ZNK10__cxxabiv116__shim_type_info5noop2Ev) for __cxxabiv1::__shim_type_info::noop2() const
    private_typeinfo.cpp.o(.rodata._ZTVN10__cxxabiv117__class_type_infoE) refers to private_typeinfo.cpp.o(.text._ZNK10__cxxabiv117__class_type_info9can_catchEPKNS_16__shim_type_infoERPv) for __cxxabiv1::__class_type_info::can_catch(__cxxabiv1::__shim_type_info const*, void*&) const
    private_typeinfo.cpp.o(.rodata._ZTVN10__cxxabiv117__class_type_infoE) refers to private_typeinfo.cpp.o(.text._ZNK10__cxxabiv117__class_type_info16search_above_dstEPNS_19__dynamic_cast_infoEPKvS4_ib) for __cxxabiv1::__class_type_info::search_above_dst(__cxxabiv1::__dynamic_cast_info*, void const*, void const*, int, bool) const
    private_typeinfo.cpp.o(.rodata._ZTVN10__cxxabiv117__class_type_infoE) refers to private_typeinfo.cpp.o(.text._ZNK10__cxxabiv117__class_type_info16search_below_dstEPNS_19__dynamic_cast_infoEPKvib) for __cxxabiv1::__class_type_info::search_below_dst(__cxxabiv1::__dynamic_cast_info*, void const*, int, bool) const
    private_typeinfo.cpp.o(.rodata._ZTVN10__cxxabiv117__class_type_infoE) refers to private_typeinfo.cpp.o(.text._ZNK10__cxxabiv117__class_type_info27has_unambiguous_public_baseEPNS_19__dynamic_cast_infoEPvi) for __cxxabiv1::__class_type_info::has_unambiguous_public_base(__cxxabiv1::__dynamic_cast_info*, void*, int) const
    private_typeinfo.cpp.o(.rodata._ZTVN10__cxxabiv120__si_class_type_infoE) refers to private_typeinfo.cpp.o(.rodata._ZTIN10__cxxabiv120__si_class_type_infoE) for typeinfo for __cxxabiv1::__si_class_type_info
    private_typeinfo.cpp.o(.rodata._ZTVN10__cxxabiv120__si_class_type_infoE) refers to private_typeinfo.cpp.o(.text._ZN10__cxxabiv116__shim_type_infoD2Ev) for __cxxabiv1::__shim_type_info::~__shim_type_info__sub_object()
    private_typeinfo.cpp.o(.rodata._ZTVN10__cxxabiv120__si_class_type_infoE) refers to private_typeinfo.cpp.o(.text._ZN10__cxxabiv120__si_class_type_infoD0Ev) for __cxxabiv1::__si_class_type_info::~__si_class_type_info__deallocating()
    private_typeinfo.cpp.o(.rodata._ZTVN10__cxxabiv120__si_class_type_infoE) refers to private_typeinfo.cpp.o(.text._ZNK10__cxxabiv116__shim_type_info5noop1Ev) for __cxxabiv1::__shim_type_info::noop1() const
    private_typeinfo.cpp.o(.rodata._ZTVN10__cxxabiv120__si_class_type_infoE) refers to private_typeinfo.cpp.o(.text._ZNK10__cxxabiv116__shim_type_info5noop2Ev) for __cxxabiv1::__shim_type_info::noop2() const
    private_typeinfo.cpp.o(.rodata._ZTVN10__cxxabiv120__si_class_type_infoE) refers to private_typeinfo.cpp.o(.text._ZNK10__cxxabiv117__class_type_info9can_catchEPKNS_16__shim_type_infoERPv) for __cxxabiv1::__class_type_info::can_catch(__cxxabiv1::__shim_type_info const*, void*&) const
    private_typeinfo.cpp.o(.rodata._ZTVN10__cxxabiv120__si_class_type_infoE) refers to private_typeinfo.cpp.o(.text._ZNK10__cxxabiv120__si_class_type_info16search_above_dstEPNS_19__dynamic_cast_infoEPKvS4_ib) for __cxxabiv1::__si_class_type_info::search_above_dst(__cxxabiv1::__dynamic_cast_info*, void const*, void const*, int, bool) const
    private_typeinfo.cpp.o(.rodata._ZTVN10__cxxabiv120__si_class_type_infoE) refers to private_typeinfo.cpp.o(.text._ZNK10__cxxabiv120__si_class_type_info16search_below_dstEPNS_19__dynamic_cast_infoEPKvib) for __cxxabiv1::__si_class_type_info::search_below_dst(__cxxabiv1::__dynamic_cast_info*, void const*, int, bool) const
    private_typeinfo.cpp.o(.rodata._ZTVN10__cxxabiv120__si_class_type_infoE) refers to private_typeinfo.cpp.o(.text._ZNK10__cxxabiv120__si_class_type_info27has_unambiguous_public_baseEPNS_19__dynamic_cast_infoEPvi) for __cxxabiv1::__si_class_type_info::has_unambiguous_public_base(__cxxabiv1::__dynamic_cast_info*, void*, int) const
    private_typeinfo.cpp.o(.rodata._ZTIN10__cxxabiv120__si_class_type_infoE) refers to private_typeinfo.cpp.o(.rodata._ZTVN10__cxxabiv120__si_class_type_infoE) for vtable for __cxxabiv1::__si_class_type_info
    private_typeinfo.cpp.o(.rodata._ZTIN10__cxxabiv120__si_class_type_infoE) refers to private_typeinfo.cpp.o(.rodata._ZTSN10__cxxabiv120__si_class_type_infoE) for typeinfo name for __cxxabiv1::__si_class_type_info
    private_typeinfo.cpp.o(.rodata._ZTIN10__cxxabiv120__si_class_type_infoE) refers to private_typeinfo.cpp.o(.rodata._ZTIN10__cxxabiv117__class_type_infoE) for typeinfo for __cxxabiv1::__class_type_info
    private_typeinfo.cpp.o(.rodata._ZTVN10__cxxabiv121__vmi_class_type_infoE) refers to private_typeinfo.cpp.o(.rodata._ZTIN10__cxxabiv121__vmi_class_type_infoE) for typeinfo for __cxxabiv1::__vmi_class_type_info
    private_typeinfo.cpp.o(.rodata._ZTVN10__cxxabiv121__vmi_class_type_infoE) refers to private_typeinfo.cpp.o(.text._ZN10__cxxabiv116__shim_type_infoD2Ev) for __cxxabiv1::__shim_type_info::~__shim_type_info__sub_object()
    private_typeinfo.cpp.o(.rodata._ZTVN10__cxxabiv121__vmi_class_type_infoE) refers to private_typeinfo.cpp.o(.text._ZN10__cxxabiv121__vmi_class_type_infoD0Ev) for __cxxabiv1::__vmi_class_type_info::~__vmi_class_type_info__deallocating()
    private_typeinfo.cpp.o(.rodata._ZTVN10__cxxabiv121__vmi_class_type_infoE) refers to private_typeinfo.cpp.o(.text._ZNK10__cxxabiv116__shim_type_info5noop1Ev) for __cxxabiv1::__shim_type_info::noop1() const
    private_typeinfo.cpp.o(.rodata._ZTVN10__cxxabiv121__vmi_class_type_infoE) refers to private_typeinfo.cpp.o(.text._ZNK10__cxxabiv116__shim_type_info5noop2Ev) for __cxxabiv1::__shim_type_info::noop2() const
    private_typeinfo.cpp.o(.rodata._ZTVN10__cxxabiv121__vmi_class_type_infoE) refers to private_typeinfo.cpp.o(.text._ZNK10__cxxabiv117__class_type_info9can_catchEPKNS_16__shim_type_infoERPv) for __cxxabiv1::__class_type_info::can_catch(__cxxabiv1::__shim_type_info const*, void*&) const
    private_typeinfo.cpp.o(.rodata._ZTVN10__cxxabiv121__vmi_class_type_infoE) refers to private_typeinfo.cpp.o(.text._ZNK10__cxxabiv121__vmi_class_type_info16search_above_dstEPNS_19__dynamic_cast_infoEPKvS4_ib) for __cxxabiv1::__vmi_class_type_info::search_above_dst(__cxxabiv1::__dynamic_cast_info*, void const*, void const*, int, bool) const
    private_typeinfo.cpp.o(.rodata._ZTVN10__cxxabiv121__vmi_class_type_infoE) refers to private_typeinfo.cpp.o(.text._ZNK10__cxxabiv121__vmi_class_type_info16search_below_dstEPNS_19__dynamic_cast_infoEPKvib) for __cxxabiv1::__vmi_class_type_info::search_below_dst(__cxxabiv1::__dynamic_cast_info*, void const*, int, bool) const
    private_typeinfo.cpp.o(.rodata._ZTVN10__cxxabiv121__vmi_class_type_infoE) refers to private_typeinfo.cpp.o(.text._ZNK10__cxxabiv121__vmi_class_type_info27has_unambiguous_public_baseEPNS_19__dynamic_cast_infoEPvi) for __cxxabiv1::__vmi_class_type_info::has_unambiguous_public_base(__cxxabiv1::__dynamic_cast_info*, void*, int) const
    private_typeinfo.cpp.o(.rodata._ZTIN10__cxxabiv121__vmi_class_type_infoE) refers to private_typeinfo.cpp.o(.rodata._ZTVN10__cxxabiv120__si_class_type_infoE) for vtable for __cxxabiv1::__si_class_type_info
    private_typeinfo.cpp.o(.rodata._ZTIN10__cxxabiv121__vmi_class_type_infoE) refers to private_typeinfo.cpp.o(.rodata._ZTSN10__cxxabiv121__vmi_class_type_infoE) for typeinfo name for __cxxabiv1::__vmi_class_type_info
    private_typeinfo.cpp.o(.rodata._ZTIN10__cxxabiv121__vmi_class_type_infoE) refers to private_typeinfo.cpp.o(.rodata._ZTIN10__cxxabiv117__class_type_infoE) for typeinfo for __cxxabiv1::__class_type_info
    private_typeinfo.cpp.o(.rodata._ZTVN10__cxxabiv117__pbase_type_infoE) refers to private_typeinfo.cpp.o(.rodata._ZTIN10__cxxabiv117__pbase_type_infoE) for typeinfo for __cxxabiv1::__pbase_type_info
    private_typeinfo.cpp.o(.rodata._ZTVN10__cxxabiv117__pbase_type_infoE) refers to private_typeinfo.cpp.o(.text._ZN10__cxxabiv116__shim_type_infoD2Ev) for __cxxabiv1::__shim_type_info::~__shim_type_info__sub_object()
    private_typeinfo.cpp.o(.rodata._ZTVN10__cxxabiv117__pbase_type_infoE) refers to private_typeinfo.cpp.o(.text._ZN10__cxxabiv117__pbase_type_infoD0Ev) for __cxxabiv1::__pbase_type_info::~__pbase_type_info__deallocating()
    private_typeinfo.cpp.o(.rodata._ZTVN10__cxxabiv117__pbase_type_infoE) refers to private_typeinfo.cpp.o(.text._ZNK10__cxxabiv116__shim_type_info5noop1Ev) for __cxxabiv1::__shim_type_info::noop1() const
    private_typeinfo.cpp.o(.rodata._ZTVN10__cxxabiv117__pbase_type_infoE) refers to private_typeinfo.cpp.o(.text._ZNK10__cxxabiv116__shim_type_info5noop2Ev) for __cxxabiv1::__shim_type_info::noop2() const
    private_typeinfo.cpp.o(.rodata._ZTVN10__cxxabiv117__pbase_type_infoE) refers to private_typeinfo.cpp.o(.text._ZNK10__cxxabiv117__pbase_type_info9can_catchEPKNS_16__shim_type_infoERPv) for __cxxabiv1::__pbase_type_info::can_catch(__cxxabiv1::__shim_type_info const*, void*&) const
    private_typeinfo.cpp.o(.rodata._ZTVN10__cxxabiv119__pointer_type_infoE) refers to private_typeinfo.cpp.o(.rodata._ZTIN10__cxxabiv119__pointer_type_infoE) for typeinfo for __cxxabiv1::__pointer_type_info
    private_typeinfo.cpp.o(.rodata._ZTVN10__cxxabiv119__pointer_type_infoE) refers to private_typeinfo.cpp.o(.text._ZN10__cxxabiv116__shim_type_infoD2Ev) for __cxxabiv1::__shim_type_info::~__shim_type_info__sub_object()
    private_typeinfo.cpp.o(.rodata._ZTVN10__cxxabiv119__pointer_type_infoE) refers to private_typeinfo.cpp.o(.text._ZN10__cxxabiv119__pointer_type_infoD0Ev) for __cxxabiv1::__pointer_type_info::~__pointer_type_info__deallocating()
    private_typeinfo.cpp.o(.rodata._ZTVN10__cxxabiv119__pointer_type_infoE) refers to private_typeinfo.cpp.o(.text._ZNK10__cxxabiv116__shim_type_info5noop1Ev) for __cxxabiv1::__shim_type_info::noop1() const
    private_typeinfo.cpp.o(.rodata._ZTVN10__cxxabiv119__pointer_type_infoE) refers to private_typeinfo.cpp.o(.text._ZNK10__cxxabiv116__shim_type_info5noop2Ev) for __cxxabiv1::__shim_type_info::noop2() const
    private_typeinfo.cpp.o(.rodata._ZTVN10__cxxabiv119__pointer_type_infoE) refers to private_typeinfo.cpp.o(.text._ZNK10__cxxabiv119__pointer_type_info9can_catchEPKNS_16__shim_type_infoERPv) for __cxxabiv1::__pointer_type_info::can_catch(__cxxabiv1::__shim_type_info const*, void*&) const
    private_typeinfo.cpp.o(.rodata._ZTVN10__cxxabiv129__pointer_to_member_type_infoE) refers to private_typeinfo.cpp.o(.rodata._ZTIN10__cxxabiv129__pointer_to_member_type_infoE) for typeinfo for __cxxabiv1::__pointer_to_member_type_info
    private_typeinfo.cpp.o(.rodata._ZTVN10__cxxabiv129__pointer_to_member_type_infoE) refers to private_typeinfo.cpp.o(.text._ZN10__cxxabiv116__shim_type_infoD2Ev) for __cxxabiv1::__shim_type_info::~__shim_type_info__sub_object()
    private_typeinfo.cpp.o(.rodata._ZTVN10__cxxabiv129__pointer_to_member_type_infoE) refers to private_typeinfo.cpp.o(.text._ZN10__cxxabiv129__pointer_to_member_type_infoD0Ev) for __cxxabiv1::__pointer_to_member_type_info::~__pointer_to_member_type_info__deallocating()
    private_typeinfo.cpp.o(.rodata._ZTVN10__cxxabiv129__pointer_to_member_type_infoE) refers to private_typeinfo.cpp.o(.text._ZNK10__cxxabiv116__shim_type_info5noop1Ev) for __cxxabiv1::__shim_type_info::noop1() const
    private_typeinfo.cpp.o(.rodata._ZTVN10__cxxabiv129__pointer_to_member_type_infoE) refers to private_typeinfo.cpp.o(.text._ZNK10__cxxabiv116__shim_type_info5noop2Ev) for __cxxabiv1::__shim_type_info::noop2() const
    private_typeinfo.cpp.o(.rodata._ZTVN10__cxxabiv129__pointer_to_member_type_infoE) refers to private_typeinfo.cpp.o(.text._ZNK10__cxxabiv129__pointer_to_member_type_info9can_catchEPKNS_16__shim_type_infoERPv) for __cxxabiv1::__pointer_to_member_type_info::can_catch(__cxxabiv1::__shim_type_info const*, void*&) const
    __rtentry.o(.ARM.Collect$$rtentry$$00000000) refers (Special) to __rtentry2.o(.ARM.Collect$$rtentry$$0000000A) for __rt_entry_li
    __rtentry.o(.ARM.Collect$$rtentry$$00000000) refers (Special) to __rtentry2.o(.ARM.Collect$$rtentry$$0000000D) for __rt_entry_main
    __rtentry.o(.ARM.Collect$$rtentry$$00000000) refers (Special) to __rtentry2.o(.ARM.Collect$$rtentry$$0000000C) for __rt_entry_postli_1
    __rtentry.o(.ARM.Collect$$rtentry$$00000000) refers (Special) to __rtentry2.o(.ARM.Collect$$rtentry$$00000009) for __rt_entry_postsh_1
    __rtentry.o(.ARM.Collect$$rtentry$$00000000) refers (Special) to __rtentry2.o(.ARM.Collect$$rtentry$$00000002) for __rt_entry_presh_1
    __rtentry.o(.ARM.Collect$$rtentry$$00000000) refers (Special) to __rtentry4.o(.ARM.Collect$$rtentry$$00000004) for __rt_entry_sh
    malloc.o(.text) refers (Special) to hguard.o(.text) for __heap$guard
    malloc.o(.text) refers (Special) to init_alloc.o(.text) for _init_alloc
    malloc.o(.text) refers to rt_heap_descriptor_intlibspace.o(.text) for __rt_heap_descriptor
    malloc.o(.text) refers to heapstubs.o(.text) for __Heap_Alloc
    free.o(.text) refers (Special) to hguard.o(.text) for __heap$guard
    free.o(.text) refers to rt_heap_descriptor_intlibspace.o(.text) for __rt_heap_descriptor
    free.o(.text) refers to heapstubs.o(.text) for __Heap_Free
    h1_alloc.o(.text) refers (Special) to h1_init.o(.text) for __Heap_Initialize
    h1_alloc.o(.text) refers to rt_heap_descriptor_intlibspace.o(.text) for __rt_heap_descriptor
    h1_alloc.o(.text) refers to init_alloc.o(.text) for __Heap_Full
    h1_free.o(.text) refers to rt_heap_descriptor_intlibspace.o(.text) for __rt_heap_descriptor
    h1_memalign.o(.text) refers (Special) to h1_init.o(.text) for __Heap_Initialize
    h1_memalign.o(.text) refers to rt_heap_descriptor_intlibspace.o(.text) for __rt_heap_descriptor
    h1_memalign.o(.text) refers to init_alloc.o(.text) for __Heap_Full
    h1_alloc_threads.o(.text) refers (Special) to h1_init.o(.text) for __Heap_Initialize
    h1_alloc_threads.o(.text) refers to init_alloc.o(.text) for __Heap_Full
    h1_alloc_threads.o(.text) refers to rt_heap_descriptor_intlibspace.o(.text) for __rt_heap_descriptor
    h1_free_threads.o(.text) refers to rt_heap_descriptor_intlibspace.o(.text) for __rt_heap_descriptor
    h1_memalign_threads.o(.text) refers (Special) to h1_init.o(.text) for __Heap_Initialize
    h1_memalign_threads.o(.text) refers to rt_heap_descriptor_intlibspace.o(.text) for __rt_heap_descriptor
    h1_memalign_threads.o(.text) refers to init_alloc.o(.text) for __Heap_Full
    heap2.o(i._FDIterate) refers to heap2.o(.conststring) for .conststring
    heap2.o(i.__Heap_ProvideMemory$realtime) refers to fdtree.o(i._FDTree_Delete) for _FDTree_Delete
    heap2.o(i.__Heap_ProvideMemory$realtime) refers to fdtree.o(i._FDTree_Insert) for _FDTree_Insert
    heap2.o(i.__Heap_Stats$realtime) refers to heap2.o(i._Heap2_StatsIterate) for _Heap2_StatsIterate
    heap2.o(i.__Heap_Valid$realtime) refers to heap2.o(i._FDIterate) for _FDIterate
    heap2.o(i.__Heap_Valid$realtime) refers to heap2.o(.conststring) for .conststring
    heap2.o(i.free$realtime) refers to rt_heap_descriptor_intlibspace.o(.text) for __rt_heap_descriptor
    heap2.o(i.free$realtime) refers to fdtree.o(i._FDTree_Delete) for _FDTree_Delete
    heap2.o(i.free$realtime) refers to fdtree.o(i._FDTree_Insert) for _FDTree_Insert
    heap2.o(i.malloc$realtime) refers to rt_heap_descriptor_intlibspace.o(.text) for __rt_heap_descriptor
    heap2.o(i.malloc$realtime) refers to fdtree.o(i._FDTree_FindFirst) for _FDTree_FindFirst
    heap2.o(i.malloc$realtime) refers to init_alloc.o(.text) for __Heap_Full
    heap2.o(i.malloc$realtime) refers to fdtree.o(i._FDTree_RemoveNode) for _FDTree_RemoveNode
    heap2.o(i.malloc$realtime) refers to fdtree.o(i._FDTree_Insert) for _FDTree_Insert
    heap2.o(i.posix_memalign$realtime) refers to rt_heap_descriptor_intlibspace.o(.text) for __rt_heap_descriptor
    heap2.o(i.posix_memalign$realtime) refers to fdtree.o(i._FDTree_FindFirst) for _FDTree_FindFirst
    heap2.o(i.posix_memalign$realtime) refers to init_alloc.o(.text) for __Heap_Full
    heap2.o(i.posix_memalign$realtime) refers to fdtree.o(i._FDTree_RemoveNode) for _FDTree_RemoveNode
    heap2.o(i.posix_memalign$realtime) refers to fdtree.o(i._FDTree_Insert) for _FDTree_Insert
    heap2.o(i.realloc$realtime) refers to rt_heap_descriptor_intlibspace.o(.text) for __rt_heap_descriptor
    heap2.o(i.realloc$realtime) refers to fdtree.o(i._FDTree_Insert) for _FDTree_Insert
    heap2.o(i.realloc$realtime) refers to h1_free.o(.text) for free
    heap2.o(i.realloc$realtime) refers to h1_alloc.o(.text) for malloc
    heap2.o(i.realloc$realtime) refers to fdtree.o(i._FDTree_Delete) for _FDTree_Delete
    heap2.o(i.realloc$realtime) refers to rt_memcpy_w.o(.text) for __aeabi_memcpy4
    heap2_threads.o(i._FDIterate) refers to heap2_threads.o(.conststring) for .conststring
    heap2_threads.o(i.__Heap_Initialize$realtime$concurrent) refers to mutex_dummy.o(.text) for _mutex_initialize
    heap2_threads.o(i.__Heap_ProvideMemory$realtime$concurrent) refers to fdtree.o(i._FDTree_Delete) for _FDTree_Delete
    heap2_threads.o(i.__Heap_ProvideMemory$realtime$concurrent) refers to fdtree.o(i._FDTree_Insert) for _FDTree_Insert
    heap2_threads.o(i.__Heap_Stats$realtime$concurrent) refers to heap2_threads.o(i._Heap2_StatsIterate) for _Heap2_StatsIterate
    heap2_threads.o(i.__Heap_Valid$realtime$concurrent) refers to heap2_threads.o(i._FDIterate) for _FDIterate
    heap2_threads.o(i.__Heap_Valid$realtime$concurrent) refers to heap2_threads.o(.conststring) for .conststring
    heap2_threads.o(i.free$realtime$concurrent) refers to rt_heap_descriptor_intlibspace.o(.text) for __rt_heap_descriptor
    heap2_threads.o(i.free$realtime$concurrent) refers to fdtree.o(i._FDTree_Delete) for _FDTree_Delete
    heap2_threads.o(i.free$realtime$concurrent) refers to fdtree.o(i._FDTree_Insert) for _FDTree_Insert
    heap2_threads.o(i.malloc$realtime$concurrent) refers to rt_heap_descriptor_intlibspace.o(.text) for __rt_heap_descriptor
    heap2_threads.o(i.malloc$realtime$concurrent) refers to fdtree.o(i._FDTree_FindFirst) for _FDTree_FindFirst
    heap2_threads.o(i.malloc$realtime$concurrent) refers to init_alloc.o(.text) for __Heap_Full
    heap2_threads.o(i.malloc$realtime$concurrent) refers to fdtree.o(i._FDTree_RemoveNode) for _FDTree_RemoveNode
    heap2_threads.o(i.malloc$realtime$concurrent) refers to fdtree.o(i._FDTree_Insert) for _FDTree_Insert
    heap2_threads.o(i.posix_memalign$realtime$concurrent) refers to rt_heap_descriptor_intlibspace.o(.text) for __rt_heap_descriptor
    heap2_threads.o(i.posix_memalign$realtime$concurrent) refers to fdtree.o(i._FDTree_FindFirst) for _FDTree_FindFirst
    heap2_threads.o(i.posix_memalign$realtime$concurrent) refers to init_alloc.o(.text) for __Heap_Full
    heap2_threads.o(i.posix_memalign$realtime$concurrent) refers to fdtree.o(i._FDTree_RemoveNode) for _FDTree_RemoveNode
    heap2_threads.o(i.posix_memalign$realtime$concurrent) refers to fdtree.o(i._FDTree_Insert) for _FDTree_Insert
    heap2_threads.o(i.realloc$realtime$concurrent) refers to rt_heap_descriptor_intlibspace.o(.text) for __rt_heap_descriptor
    heap2_threads.o(i.realloc$realtime$concurrent) refers to fdtree.o(i._FDTree_Insert) for _FDTree_Insert
    heap2_threads.o(i.realloc$realtime$concurrent) refers to h1_free.o(.text) for free
    heap2_threads.o(i.realloc$realtime$concurrent) refers to h1_alloc.o(.text) for malloc
    heap2_threads.o(i.realloc$realtime$concurrent) refers to fdtree.o(i._FDTree_Delete) for _FDTree_Delete
    heap2_threads.o(i.realloc$realtime$concurrent) refers to rt_memcpy_w.o(.text) for __aeabi_memcpy4
    abort.o(.text) refers to defsig_abrt_outer.o(.text) for __rt_SIGABRT
    abort.o(.text) refers (Weak) to libshutdown.o(.ARM.Collect$$libshutdown$$00000000) for __rt_lib_shutdown
    abort.o(.text) refers to sys_exit.o(.text) for _sys_exit
    libinit2.o(.ARM.Collect$$libinit$$00000007) refers (Weak) to init_alloc.o(.text) for _init_alloc
    libinit2.o(.ARM.Collect$$libinit$$00000012) refers to libinit2.o(.ARM.Collect$$libinit$$00000011) for .ARM.Collect$$libinit$$00000011
    libinit2.o(.ARM.Collect$$libinit$$00000014) refers to libinit2.o(.ARM.Collect$$libinit$$00000011) for .ARM.Collect$$libinit$$00000011
    libinit2.o(.ARM.Collect$$libinit$$00000016) refers to libinit2.o(.ARM.Collect$$libinit$$00000011) for .ARM.Collect$$libinit$$00000011
    libinit2.o(.ARM.Collect$$libinit$$00000018) refers to libinit2.o(.ARM.Collect$$libinit$$00000011) for .ARM.Collect$$libinit$$00000011
    libinit2.o(.ARM.Collect$$libinit$$0000001A) refers to libinit2.o(.ARM.Collect$$libinit$$00000011) for .ARM.Collect$$libinit$$00000011
    libinit2.o(.ARM.Collect$$libinit$$00000028) refers to argv_veneer.o(.emb_text) for __ARM_argv_veneer
    libinit2.o(.ARM.Collect$$libinit$$00000029) refers to argv_veneer.o(.emb_text) for __ARM_argv_veneer
    libinit2.o(.ARM.Collect$$libinit$$00000033) refers (Weak) to init_aeabi.o(.text) for __cpp_initialize__aeabi_
    fnaninf.o(x$fpl$fnaninf) refers (Special) to usenofp.o(x$fpl$usenofp) for __I$use$fp
    fretinf.o(x$fpl$fretinf) refers (Special) to usenofp.o(x$fpl$usenofp) for __I$use$fp
    cxa_handlers.cpp.o(.text._ZSt14get_unexpectedv) refers to cxa_default_handlers.cpp.o(.data.__cxa_unexpected_handler) for __cxa_unexpected_handler
    cxa_handlers.cpp.o(.ARM.exidx.text._ZSt14get_unexpectedv) refers to cxa_handlers.cpp.o(.text._ZSt14get_unexpectedv) for [Anonymous Symbol]
    cxa_handlers.cpp.o(.text._ZSt12__unexpectedPFvvE) refers to abort_message.cpp.o(.text.abort_message) for abort_message
    cxa_handlers.cpp.o(.ARM.exidx.text._ZSt12__unexpectedPFvvE) refers to cxa_handlers.cpp.o(.text._ZSt12__unexpectedPFvvE) for [Anonymous Symbol]
    cxa_handlers.cpp.o(.text._ZSt10unexpectedv) refers to cxa_default_handlers.cpp.o(.data.__cxa_unexpected_handler) for __cxa_unexpected_handler
    cxa_handlers.cpp.o(.text._ZSt10unexpectedv) refers to cxa_handlers.cpp.o(.text._ZSt12__unexpectedPFvvE) for std::__unexpected(void (*)())
    cxa_handlers.cpp.o(.ARM.exidx.text._ZSt10unexpectedv) refers to cxa_handlers.cpp.o(.text._ZSt10unexpectedv) for [Anonymous Symbol]
    cxa_handlers.cpp.o(.text._ZSt13get_terminatev) refers to cxa_default_handlers.cpp.o(.data.__cxa_terminate_handler) for __cxa_terminate_handler
    cxa_handlers.cpp.o(.ARM.exidx.text._ZSt13get_terminatev) refers to cxa_handlers.cpp.o(.text._ZSt13get_terminatev) for [Anonymous Symbol]
    cxa_handlers.cpp.o(.text._ZSt11__terminatePFvvE) refers to abort_message.cpp.o(.text.abort_message) for abort_message
    cxa_handlers.cpp.o(.ARM.exidx.text._ZSt11__terminatePFvvE) refers to cxa_handlers.cpp.o(.text._ZSt11__terminatePFvvE) for [Anonymous Symbol]
    cxa_handlers.cpp.o(.text._ZSt9terminatev) refers to cxa_default_handlers.cpp.o(.data.__cxa_terminate_handler) for __cxa_terminate_handler
    cxa_handlers.cpp.o(.text._ZSt9terminatev) refers to cxa_handlers.cpp.o(.text._ZSt11__terminatePFvvE) for std::__terminate(void (*)())
    cxa_handlers.cpp.o(.ARM.exidx.text._ZSt9terminatev) refers to cxa_handlers.cpp.o(.text._ZSt9terminatev) for [Anonymous Symbol]
    cxa_handlers.cpp.o(.text._ZSt15get_new_handlerv) refers to cxa_default_handlers.cpp.o(.bss.__cxa_new_handler) for __cxa_new_handler
    cxa_handlers.cpp.o(.ARM.exidx.text._ZSt15get_new_handlerv) refers to cxa_handlers.cpp.o(.text._ZSt15get_new_handlerv) for [Anonymous Symbol]
    cxa_virtual.cpp.o(.text.__cxa_pure_virtual) refers to abort_message.cpp.o(.text.abort_message) for abort_message
    cxa_virtual.cpp.o(.ARM.exidx.text.__cxa_pure_virtual) refers to cxa_virtual.cpp.o(.text.__cxa_pure_virtual) for [Anonymous Symbol]
    cxa_virtual.cpp.o(.text.__cxa_deleted_virtual) refers to abort_message.cpp.o(.text.abort_message) for abort_message
    cxa_virtual.cpp.o(.ARM.exidx.text.__cxa_deleted_virtual) refers to cxa_virtual.cpp.o(.text.__cxa_deleted_virtual) for [Anonymous Symbol]
    stdlib_typeinfo.cpp.o(.ARM.exidx.text._ZNSt9type_infoD2Ev) refers to stdlib_typeinfo.cpp.o(.text._ZNSt9type_infoD2Ev) for [Anonymous Symbol]
    stdlib_typeinfo.cpp.o(.text._ZNSt9type_infoD0Ev) refers to new.cpp.o(.text._ZdlPvj) for operator delete(void*, unsigned int)
    stdlib_typeinfo.cpp.o(.ARM.exidx.text._ZNSt9type_infoD0Ev) refers to stdlib_typeinfo.cpp.o(.text._ZNSt9type_infoD0Ev) for [Anonymous Symbol]
    stdlib_typeinfo.cpp.o(.text._ZNSt8bad_castC2Ev) refers to stdlib_typeinfo.cpp.o(.rodata._ZTVSt8bad_cast) for vtable for std::bad_cast
    stdlib_typeinfo.cpp.o(.ARM.exidx.text._ZNSt8bad_castC2Ev) refers to stdlib_typeinfo.cpp.o(.text._ZNSt8bad_castC2Ev) for [Anonymous Symbol]
    stdlib_typeinfo.cpp.o(.text._ZNSt8bad_castD2Ev) refers to stdlib_exception.cpp.o(.text._ZNSt9exceptionD2Ev) for std::exception::~exception__sub_object()
    stdlib_typeinfo.cpp.o(.ARM.exidx.text._ZNSt8bad_castD2Ev) refers to stdlib_typeinfo.cpp.o(.text._ZNSt8bad_castD2Ev) for [Anonymous Symbol]
    stdlib_typeinfo.cpp.o(.text._ZNSt8bad_castD0Ev) refers to new.cpp.o(.text._ZdlPvj) for operator delete(void*, unsigned int)
    stdlib_typeinfo.cpp.o(.ARM.exidx.text._ZNSt8bad_castD0Ev) refers to stdlib_typeinfo.cpp.o(.text._ZNSt8bad_castD0Ev) for [Anonymous Symbol]
    stdlib_typeinfo.cpp.o(.ARM.exidx.text._ZNKSt8bad_cast4whatEv) refers to stdlib_typeinfo.cpp.o(.text._ZNKSt8bad_cast4whatEv) for [Anonymous Symbol]
    stdlib_typeinfo.cpp.o(.text._ZNSt10bad_typeidC2Ev) refers to stdlib_typeinfo.cpp.o(.rodata._ZTVSt10bad_typeid) for vtable for std::bad_typeid
    stdlib_typeinfo.cpp.o(.ARM.exidx.text._ZNSt10bad_typeidC2Ev) refers to stdlib_typeinfo.cpp.o(.text._ZNSt10bad_typeidC2Ev) for [Anonymous Symbol]
    stdlib_typeinfo.cpp.o(.text._ZNSt10bad_typeidD2Ev) refers to stdlib_exception.cpp.o(.text._ZNSt9exceptionD2Ev) for std::exception::~exception__sub_object()
    stdlib_typeinfo.cpp.o(.ARM.exidx.text._ZNSt10bad_typeidD2Ev) refers to stdlib_typeinfo.cpp.o(.text._ZNSt10bad_typeidD2Ev) for [Anonymous Symbol]
    stdlib_typeinfo.cpp.o(.text._ZNSt10bad_typeidD0Ev) refers to new.cpp.o(.text._ZdlPvj) for operator delete(void*, unsigned int)
    stdlib_typeinfo.cpp.o(.ARM.exidx.text._ZNSt10bad_typeidD0Ev) refers to stdlib_typeinfo.cpp.o(.text._ZNSt10bad_typeidD0Ev) for [Anonymous Symbol]
    stdlib_typeinfo.cpp.o(.ARM.exidx.text._ZNKSt10bad_typeid4whatEv) refers to stdlib_typeinfo.cpp.o(.text._ZNKSt10bad_typeid4whatEv) for [Anonymous Symbol]
    stdlib_typeinfo.cpp.o(.rodata._ZTVSt8bad_cast) refers to stdlib_typeinfo.cpp.o(.rodata._ZTISt8bad_cast) for typeinfo for std::bad_cast
    stdlib_typeinfo.cpp.o(.rodata._ZTVSt8bad_cast) refers to stdlib_typeinfo.cpp.o(.text._ZNSt8bad_castD2Ev) for std::bad_cast::~bad_cast__sub_object()
    stdlib_typeinfo.cpp.o(.rodata._ZTVSt8bad_cast) refers to stdlib_typeinfo.cpp.o(.text._ZNSt8bad_castD0Ev) for std::bad_cast::~bad_cast__deallocating()
    stdlib_typeinfo.cpp.o(.rodata._ZTVSt8bad_cast) refers to stdlib_typeinfo.cpp.o(.text._ZNKSt8bad_cast4whatEv) for std::bad_cast::what() const
    stdlib_typeinfo.cpp.o(.rodata._ZTVSt10bad_typeid) refers to stdlib_typeinfo.cpp.o(.rodata._ZTISt10bad_typeid) for typeinfo for std::bad_typeid
    stdlib_typeinfo.cpp.o(.rodata._ZTVSt10bad_typeid) refers to stdlib_typeinfo.cpp.o(.text._ZNSt10bad_typeidD2Ev) for std::bad_typeid::~bad_typeid__sub_object()
    stdlib_typeinfo.cpp.o(.rodata._ZTVSt10bad_typeid) refers to stdlib_typeinfo.cpp.o(.text._ZNSt10bad_typeidD0Ev) for std::bad_typeid::~bad_typeid__deallocating()
    stdlib_typeinfo.cpp.o(.rodata._ZTVSt10bad_typeid) refers to stdlib_typeinfo.cpp.o(.text._ZNKSt10bad_typeid4whatEv) for std::bad_typeid::what() const
    stdlib_typeinfo.cpp.o(.rodata._ZTVSt9type_info) refers to stdlib_typeinfo.cpp.o(.rodata._ZTISt9type_info) for typeinfo for std::type_info
    stdlib_typeinfo.cpp.o(.rodata._ZTVSt9type_info) refers to stdlib_typeinfo.cpp.o(.text._ZNSt9type_infoD2Ev) for std::type_info::~type_info__sub_object()
    stdlib_typeinfo.cpp.o(.rodata._ZTVSt9type_info) refers to stdlib_typeinfo.cpp.o(.text._ZNSt9type_infoD0Ev) for std::type_info::~type_info__deallocating()
    stdlib_typeinfo.cpp.o(.rodata._ZTISt9type_info) refers to private_typeinfo.cpp.o(.rodata._ZTVN10__cxxabiv117__class_type_infoE) for vtable for __cxxabiv1::__class_type_info
    stdlib_typeinfo.cpp.o(.rodata._ZTISt9type_info) refers to stdlib_typeinfo.cpp.o(.rodata._ZTSSt9type_info) for typeinfo name for std::type_info
    stdlib_typeinfo.cpp.o(.rodata._ZTISt8bad_cast) refers to private_typeinfo.cpp.o(.rodata._ZTVN10__cxxabiv120__si_class_type_infoE) for vtable for __cxxabiv1::__si_class_type_info
    stdlib_typeinfo.cpp.o(.rodata._ZTISt8bad_cast) refers to stdlib_typeinfo.cpp.o(.rodata._ZTSSt8bad_cast) for typeinfo name for std::bad_cast
    stdlib_typeinfo.cpp.o(.rodata._ZTISt8bad_cast) refers to stdlib_exception.cpp.o(.rodata._ZTISt9exception) for typeinfo for std::exception
    stdlib_typeinfo.cpp.o(.rodata._ZTISt10bad_typeid) refers to private_typeinfo.cpp.o(.rodata._ZTVN10__cxxabiv120__si_class_type_infoE) for vtable for __cxxabiv1::__si_class_type_info
    stdlib_typeinfo.cpp.o(.rodata._ZTISt10bad_typeid) refers to stdlib_typeinfo.cpp.o(.rodata._ZTSSt10bad_typeid) for typeinfo name for std::bad_typeid
    stdlib_typeinfo.cpp.o(.rodata._ZTISt10bad_typeid) refers to stdlib_exception.cpp.o(.rodata._ZTISt9exception) for typeinfo for std::exception
    sys_exit.o(.text) refers (Special) to use_no_semi.o(.text) for __I$use$semihosting
    sys_exit.o(.text) refers (Special) to indicate_semi.o(.text) for __semihosting_library_function
    sys_exit_hlt.o(.text) refers (Special) to use_no_semi.o(.text) for __I$use$semihosting
    sys_exit_hlt.o(.text) refers (Special) to indicate_semi.o(.text) for __semihosting_library_function
    __rtentry2.o(.ARM.Collect$$rtentry$$00000008) refers to boardinit2.o(.text) for _platform_post_stackheap_init
    __rtentry2.o(.ARM.Collect$$rtentry$$0000000A) refers to libinit.o(.ARM.Collect$$libinit$$00000000) for __rt_lib_init
    __rtentry2.o(.ARM.Collect$$rtentry$$0000000B) refers to boardinit3.o(.text) for _platform_post_lib_init
    __rtentry2.o(.ARM.Collect$$rtentry$$0000000D) refers to main.o(.text) for main
    __rtentry2.o(.ARM.Collect$$rtentry$$0000000D) refers to exit.o(.text) for exit
    __rtentry2.o(.ARM.exidx) refers to __rtentry2.o(.ARM.Collect$$rtentry$$00000001) for .ARM.Collect$$rtentry$$00000001
    __rtentry2.o(.ARM.exidx) refers to __rtentry2.o(.ARM.Collect$$rtentry$$00000008) for .ARM.Collect$$rtentry$$00000008
    __rtentry2.o(.ARM.exidx) refers to __rtentry2.o(.ARM.Collect$$rtentry$$0000000A) for .ARM.Collect$$rtentry$$0000000A
    __rtentry2.o(.ARM.exidx) refers to __rtentry2.o(.ARM.Collect$$rtentry$$0000000B) for .ARM.Collect$$rtentry$$0000000B
    __rtentry2.o(.ARM.exidx) refers to __rtentry2.o(.ARM.Collect$$rtentry$$0000000D) for .ARM.Collect$$rtentry$$0000000D
    __rtentry4.o(.ARM.Collect$$rtentry$$00000004) refers to sys_stackheap_outer.o(.text) for __user_setup_stackheap
    __rtentry4.o(.ARM.exidx) refers to __rtentry4.o(.ARM.Collect$$rtentry$$00000004) for .ARM.Collect$$rtentry$$00000004
    rt_heap_descriptor.o(.text) refers to rt_heap_descriptor.o(.bss) for __rt_heap_descriptor_data
    rt_heap_descriptor_intlibspace.o(.text) refers to libspace.o(.bss) for __libspace_start
    init_alloc.o(.text) refers (Special) to hguard.o(.text) for __heap$guard
    init_alloc.o(.text) refers (Special) to libinit2.o(.ARM.Collect$$libinit$$00000007) for __rt_lib_init_heap_2
    init_alloc.o(.text) refers (Special) to maybetermalloc1.o(.text) for _maybe_terminate_alloc
    init_alloc.o(.text) refers to h1_extend.o(.text) for __Heap_ProvideMemory
    init_alloc.o(.text) refers to defsig_rtmem_outer.o(.text) for __rt_SIGRTMEM
    init_alloc.o(.text) refers to rt_heap_descriptor_intlibspace.o(.text) for __rt_heap_descriptor
    init_alloc.o(.text) refers to h1_init.o(.text) for __Heap_Initialize
    h1_init_threads.o(.text) refers to mutex_dummy.o(.text) for _mutex_initialize
    defsig_abrt_outer.o(.text) refers to defsig_abrt_inner.o(.text) for __rt_SIGABRT_inner
    defsig_abrt_outer.o(.text) refers to defsig_exit.o(.text) for __sig_exit
    defsig_abrt_formal.o(.text) refers to rt_raise.o(.text) for __rt_raise
    _get_argv.o(.text) refers (Special) to hrguard.o(.text) for __heap_region$guard
    _get_argv.o(.text) refers to h1_alloc.o(.text) for malloc
    _get_argv.o(.text) refers to defsig_rtmem_outer.o(.text) for __rt_SIGRTMEM
    _get_argv.o(.text) refers to sys_command.o(.text) for _sys_command_string
    argv_veneer.o(.emb_text) refers to no_argv.o(.text) for __ARM_get_argv
    abort_message.cpp.o(.text.abort_message) refers to abort.o(.text) for abort
    abort_message.cpp.o(.ARM.exidx.text.abort_message) refers to abort_message.cpp.o(.text.abort_message) for [Anonymous Symbol]
    cxa_default_handlers.cpp.o(.text._ZSt14set_unexpectedPFvvE) refers to cxa_default_handlers.cpp.o(.data.__cxa_unexpected_handler) for __cxa_unexpected_handler
    cxa_default_handlers.cpp.o(.text._ZSt14set_unexpectedPFvvE) refers to cxa_handlers.cpp.o(.text._ZSt9terminatev) for std::terminate()
    cxa_default_handlers.cpp.o(.ARM.exidx.text._ZSt14set_unexpectedPFvvE) refers to cxa_default_handlers.cpp.o(.text._ZSt14set_unexpectedPFvvE) for [Anonymous Symbol]
    cxa_default_handlers.cpp.o(.text._ZSt13set_terminatePFvvE) refers to cxa_default_handlers.cpp.o(.data.__cxa_terminate_handler) for __cxa_terminate_handler
    cxa_default_handlers.cpp.o(.text._ZSt13set_terminatePFvvE) refers to abort.o(.text) for abort
    cxa_default_handlers.cpp.o(.ARM.exidx.text._ZSt13set_terminatePFvvE) refers to cxa_default_handlers.cpp.o(.text._ZSt13set_terminatePFvvE) for [Anonymous Symbol]
    cxa_default_handlers.cpp.o(.text._ZSt15set_new_handlerPFvvE) refers to cxa_default_handlers.cpp.o(.bss.__cxa_new_handler) for __cxa_new_handler
    cxa_default_handlers.cpp.o(.ARM.exidx.text._ZSt15set_new_handlerPFvvE) refers to cxa_default_handlers.cpp.o(.text._ZSt15set_new_handlerPFvvE) for [Anonymous Symbol]
    cxa_default_handlers.cpp.o(.data.__cxa_terminate_handler) refers to abort.o(.text) for abort
    cxa_default_handlers.cpp.o(.data.__cxa_unexpected_handler) refers to cxa_handlers.cpp.o(.text._ZSt9terminatev) for std::terminate()
    stdlib_exception.cpp.o(.ARM.exidx.text._ZNSt9exceptionD2Ev) refers to stdlib_exception.cpp.o(.text._ZNSt9exceptionD2Ev) for [Anonymous Symbol]
    stdlib_exception.cpp.o(.text._ZNSt9exceptionD0Ev) refers to new.cpp.o(.text._ZdlPvj) for operator delete(void*, unsigned int)
    stdlib_exception.cpp.o(.ARM.exidx.text._ZNSt9exceptionD0Ev) refers to stdlib_exception.cpp.o(.text._ZNSt9exceptionD0Ev) for [Anonymous Symbol]
    stdlib_exception.cpp.o(.ARM.exidx.text._ZNKSt9exception4whatEv) refers to stdlib_exception.cpp.o(.text._ZNKSt9exception4whatEv) for [Anonymous Symbol]
    stdlib_exception.cpp.o(.text._ZNSt13bad_exceptionD0Ev) refers to new.cpp.o(.text._ZdlPvj) for operator delete(void*, unsigned int)
    stdlib_exception.cpp.o(.ARM.exidx.text._ZNSt13bad_exceptionD0Ev) refers to stdlib_exception.cpp.o(.text._ZNSt13bad_exceptionD0Ev) for [Anonymous Symbol]
    stdlib_exception.cpp.o(.ARM.exidx.text._ZNKSt13bad_exception4whatEv) refers to stdlib_exception.cpp.o(.text._ZNKSt13bad_exception4whatEv) for [Anonymous Symbol]
    stdlib_exception.cpp.o(.text._ZNSt9bad_allocC2Ev) refers to stdlib_exception.cpp.o(.rodata._ZTVSt9bad_alloc) for vtable for std::bad_alloc
    stdlib_exception.cpp.o(.ARM.exidx.text._ZNSt9bad_allocC2Ev) refers to stdlib_exception.cpp.o(.text._ZNSt9bad_allocC2Ev) for [Anonymous Symbol]
    stdlib_exception.cpp.o(.text._ZNSt9bad_allocD0Ev) refers to new.cpp.o(.text._ZdlPvj) for operator delete(void*, unsigned int)
    stdlib_exception.cpp.o(.ARM.exidx.text._ZNSt9bad_allocD0Ev) refers to stdlib_exception.cpp.o(.text._ZNSt9bad_allocD0Ev) for [Anonymous Symbol]
    stdlib_exception.cpp.o(.ARM.exidx.text._ZNKSt9bad_alloc4whatEv) refers to stdlib_exception.cpp.o(.text._ZNKSt9bad_alloc4whatEv) for [Anonymous Symbol]
    stdlib_exception.cpp.o(.text._ZNSt20bad_array_new_lengthC2Ev) refers to stdlib_exception.cpp.o(.rodata._ZTVSt20bad_array_new_length) for vtable for std::bad_array_new_length
    stdlib_exception.cpp.o(.ARM.exidx.text._ZNSt20bad_array_new_lengthC2Ev) refers to stdlib_exception.cpp.o(.text._ZNSt20bad_array_new_lengthC2Ev) for [Anonymous Symbol]
    stdlib_exception.cpp.o(.text._ZNSt20bad_array_new_lengthD0Ev) refers to new.cpp.o(.text._ZdlPvj) for operator delete(void*, unsigned int)
    stdlib_exception.cpp.o(.ARM.exidx.text._ZNSt20bad_array_new_lengthD0Ev) refers to stdlib_exception.cpp.o(.text._ZNSt20bad_array_new_lengthD0Ev) for [Anonymous Symbol]
    stdlib_exception.cpp.o(.ARM.exidx.text._ZNKSt20bad_array_new_length4whatEv) refers to stdlib_exception.cpp.o(.text._ZNKSt20bad_array_new_length4whatEv) for [Anonymous Symbol]
    stdlib_exception.cpp.o(.rodata._ZTVSt9bad_alloc) refers to stdlib_exception.cpp.o(.rodata._ZTISt9bad_alloc) for typeinfo for std::bad_alloc
    stdlib_exception.cpp.o(.rodata._ZTVSt9bad_alloc) refers to stdlib_exception.cpp.o(.text._ZNSt9exceptionD2Ev) for std::exception::~exception__sub_object()
    stdlib_exception.cpp.o(.rodata._ZTVSt9bad_alloc) refers to stdlib_exception.cpp.o(.text._ZNSt9bad_allocD0Ev) for std::bad_alloc::~bad_alloc__deallocating()
    stdlib_exception.cpp.o(.rodata._ZTVSt9bad_alloc) refers to stdlib_exception.cpp.o(.text._ZNKSt9bad_alloc4whatEv) for std::bad_alloc::what() const
    stdlib_exception.cpp.o(.rodata._ZTVSt20bad_array_new_length) refers to stdlib_exception.cpp.o(.rodata._ZTISt20bad_array_new_length) for typeinfo for std::bad_array_new_length
    stdlib_exception.cpp.o(.rodata._ZTVSt20bad_array_new_length) refers to stdlib_exception.cpp.o(.text._ZNSt9exceptionD2Ev) for std::exception::~exception__sub_object()
    stdlib_exception.cpp.o(.rodata._ZTVSt20bad_array_new_length) refers to stdlib_exception.cpp.o(.text._ZNSt20bad_array_new_lengthD0Ev) for std::bad_array_new_length::~bad_array_new_length__deallocating()
    stdlib_exception.cpp.o(.rodata._ZTVSt20bad_array_new_length) refers to stdlib_exception.cpp.o(.text._ZNKSt20bad_array_new_length4whatEv) for std::bad_array_new_length::what() const
    stdlib_exception.cpp.o(.rodata._ZTVSt9exception) refers to stdlib_exception.cpp.o(.rodata._ZTISt9exception) for typeinfo for std::exception
    stdlib_exception.cpp.o(.rodata._ZTVSt9exception) refers to stdlib_exception.cpp.o(.text._ZNSt9exceptionD2Ev) for std::exception::~exception__sub_object()
    stdlib_exception.cpp.o(.rodata._ZTVSt9exception) refers to stdlib_exception.cpp.o(.text._ZNSt9exceptionD0Ev) for std::exception::~exception__deallocating()
    stdlib_exception.cpp.o(.rodata._ZTVSt9exception) refers to stdlib_exception.cpp.o(.text._ZNKSt9exception4whatEv) for std::exception::what() const
    stdlib_exception.cpp.o(.rodata._ZTISt9exception) refers to private_typeinfo.cpp.o(.rodata._ZTVN10__cxxabiv117__class_type_infoE) for vtable for __cxxabiv1::__class_type_info
    stdlib_exception.cpp.o(.rodata._ZTISt9exception) refers to stdlib_exception.cpp.o(.rodata._ZTSSt9exception) for typeinfo name for std::exception
    stdlib_exception.cpp.o(.rodata._ZTVSt13bad_exception) refers to stdlib_exception.cpp.o(.rodata._ZTISt13bad_exception) for typeinfo for std::bad_exception
    stdlib_exception.cpp.o(.rodata._ZTVSt13bad_exception) refers to stdlib_exception.cpp.o(.text._ZNSt9exceptionD2Ev) for std::exception::~exception__sub_object()
    stdlib_exception.cpp.o(.rodata._ZTVSt13bad_exception) refers to stdlib_exception.cpp.o(.text._ZNSt13bad_exceptionD0Ev) for std::bad_exception::~bad_exception__deallocating()
    stdlib_exception.cpp.o(.rodata._ZTVSt13bad_exception) refers to stdlib_exception.cpp.o(.text._ZNKSt13bad_exception4whatEv) for std::bad_exception::what() const
    stdlib_exception.cpp.o(.rodata._ZTISt13bad_exception) refers to private_typeinfo.cpp.o(.rodata._ZTVN10__cxxabiv120__si_class_type_infoE) for vtable for __cxxabiv1::__si_class_type_info
    stdlib_exception.cpp.o(.rodata._ZTISt13bad_exception) refers to stdlib_exception.cpp.o(.rodata._ZTSSt13bad_exception) for typeinfo name for std::bad_exception
    stdlib_exception.cpp.o(.rodata._ZTISt13bad_exception) refers to stdlib_exception.cpp.o(.rodata._ZTISt9exception) for typeinfo for std::exception
    stdlib_exception.cpp.o(.rodata._ZTISt9bad_alloc) refers to private_typeinfo.cpp.o(.rodata._ZTVN10__cxxabiv120__si_class_type_infoE) for vtable for __cxxabiv1::__si_class_type_info
    stdlib_exception.cpp.o(.rodata._ZTISt9bad_alloc) refers to stdlib_exception.cpp.o(.rodata._ZTSSt9bad_alloc) for typeinfo name for std::bad_alloc
    stdlib_exception.cpp.o(.rodata._ZTISt9bad_alloc) refers to stdlib_exception.cpp.o(.rodata._ZTISt9exception) for typeinfo for std::exception
    stdlib_exception.cpp.o(.rodata._ZTISt20bad_array_new_length) refers to private_typeinfo.cpp.o(.rodata._ZTVN10__cxxabiv120__si_class_type_infoE) for vtable for __cxxabiv1::__si_class_type_info
    stdlib_exception.cpp.o(.rodata._ZTISt20bad_array_new_length) refers to stdlib_exception.cpp.o(.rodata._ZTSSt20bad_array_new_length) for typeinfo name for std::bad_array_new_length
    stdlib_exception.cpp.o(.rodata._ZTISt20bad_array_new_length) refers to stdlib_exception.cpp.o(.rodata._ZTISt9bad_alloc) for typeinfo for std::bad_alloc
    sys_command.o(.text) refers (Special) to use_no_semi.o(.text) for __I$use$semihosting
    sys_command.o(.text) refers (Special) to indicate_semi.o(.text) for __semihosting_library_function
    sys_command_hlt.o(.text) refers (Special) to use_no_semi.o(.text) for __I$use$semihosting
    sys_command_hlt.o(.text) refers (Special) to indicate_semi.o(.text) for __semihosting_library_function
    libspace.o(.text) refers to libspace.o(.bss) for __libspace_start
    sys_stackheap_outer.o(.text) refers to libspace.o(.text) for __user_perproc_libspace
    sys_stackheap_outer.o(.text) refers to startup_tm4c123.o(.text) for __user_initial_stackheap
    rt_raise.o(.text) refers to __raise.o(.text) for __raise
    rt_raise.o(.text) refers to sys_exit.o(.text) for _sys_exit
    maybetermalloc2.o(.text) refers (Special) to term_alloc.o(.text) for _terminate_alloc
    h1_extend.o(.text) refers to h1_free.o(.text) for free
    h1_extend_threads.o(.text) refers to h1_free_threads.o(.text) for free_internal$concurrent
    exit.o(.text) refers to rtexit.o(.ARM.Collect$$rtexit$$00000000) for __rt_exit
    defsig_exit.o(.text) refers to sys_exit.o(.text) for _sys_exit
    defsig_abrt_inner.o(.text) refers to defsig_general.o(.text) for __default_signal_display
    defsig_rtmem_outer.o(.text) refers to defsig_rtmem_inner.o(.text) for __rt_SIGRTMEM_inner
    defsig_rtmem_outer.o(.text) refers to defsig_exit.o(.text) for __sig_exit
    defsig_rtmem_formal.o(.text) refers to rt_raise.o(.text) for __rt_raise
    heapauxa.o(.text) refers to heapauxa.o(.data) for .data
    _get_argv_nomalloc.o(.text) refers (Special) to hrguard.o(.text) for __heap_region$guard
    _get_argv_nomalloc.o(.text) refers to defsig_rtmem_outer.o(.text) for __rt_SIGRTMEM
    _get_argv_nomalloc.o(.text) refers to sys_command.o(.text) for _sys_command_string
    libinit.o(.ARM.Collect$$libinit$$00000000) refers (Special) to libinit2.o(.ARM.Collect$$libinit$$00000030) for __rt_lib_init_alloca_1
    libinit.o(.ARM.Collect$$libinit$$00000000) refers (Special) to libinit2.o(.ARM.Collect$$libinit$$0000002E) for __rt_lib_init_argv_1
    libinit.o(.ARM.Collect$$libinit$$00000000) refers (Special) to libinit2.o(.ARM.Collect$$libinit$$0000001D) for __rt_lib_init_atexit_1
    libinit.o(.ARM.Collect$$libinit$$00000000) refers (Special) to libinit2.o(.ARM.Collect$$libinit$$00000023) for __rt_lib_init_clock_1
    libinit.o(.ARM.Collect$$libinit$$00000000) refers (Special) to libinit2.o(.ARM.Collect$$libinit$$00000034) for __rt_lib_init_cpp_1
    libinit.o(.ARM.Collect$$libinit$$00000000) refers (Special) to libinit2.o(.ARM.Collect$$libinit$$00000032) for __rt_lib_init_exceptions_1
    libinit.o(.ARM.Collect$$libinit$$00000000) refers (Special) to libinit2.o(.ARM.Collect$$libinit$$00000002) for __rt_lib_init_fp_1
    libinit.o(.ARM.Collect$$libinit$$00000000) refers (Special) to libinit2.o(.ARM.Collect$$libinit$$00000021) for __rt_lib_init_fp_trap_1
    libinit.o(.ARM.Collect$$libinit$$00000000) refers (Special) to libinit2.o(.ARM.Collect$$libinit$$00000025) for __rt_lib_init_getenv_1
    libinit.o(.ARM.Collect$$libinit$$00000000) refers (Special) to libinit2.o(.ARM.Collect$$libinit$$0000000C) for __rt_lib_init_heap_1
    libinit.o(.ARM.Collect$$libinit$$00000000) refers (Special) to libinit2.o(.ARM.Collect$$libinit$$00000013) for __rt_lib_init_lc_collate_1
    libinit.o(.ARM.Collect$$libinit$$00000000) refers (Special) to libinit2.o(.ARM.Collect$$libinit$$00000015) for __rt_lib_init_lc_ctype_1
    libinit.o(.ARM.Collect$$libinit$$00000000) refers (Special) to libinit2.o(.ARM.Collect$$libinit$$00000017) for __rt_lib_init_lc_monetary_1
    libinit.o(.ARM.Collect$$libinit$$00000000) refers (Special) to libinit2.o(.ARM.Collect$$libinit$$00000019) for __rt_lib_init_lc_numeric_1
    libinit.o(.ARM.Collect$$libinit$$00000000) refers (Special) to libinit2.o(.ARM.Collect$$libinit$$0000001B) for __rt_lib_init_lc_time_1
    libinit.o(.ARM.Collect$$libinit$$00000000) refers (Special) to libinit2.o(.ARM.Collect$$libinit$$00000006) for __rt_lib_init_preinit_1
    libinit.o(.ARM.Collect$$libinit$$00000000) refers (Special) to libinit2.o(.ARM.Collect$$libinit$$00000010) for __rt_lib_init_rand_1
    libinit.o(.ARM.Collect$$libinit$$00000000) refers (Special) to libinit2.o(.ARM.Collect$$libinit$$00000004) for __rt_lib_init_relocate_pie_1
    libinit.o(.ARM.Collect$$libinit$$00000000) refers (Special) to libinit2.o(.ARM.Collect$$libinit$$00000035) for __rt_lib_init_return
    libinit.o(.ARM.Collect$$libinit$$00000000) refers (Special) to libinit2.o(.ARM.Collect$$libinit$$0000001F) for __rt_lib_init_signal_1
    libinit.o(.ARM.Collect$$libinit$$00000000) refers (Special) to libinit2.o(.ARM.Collect$$libinit$$00000027) for __rt_lib_init_stdio_1
    libinit.o(.ARM.Collect$$libinit$$00000000) refers (Special) to libinit2.o(.ARM.Collect$$libinit$$0000000E) for __rt_lib_init_user_alloc_1
    rtexit.o(.ARM.Collect$$rtexit$$00000000) refers (Special) to rtexit2.o(.ARM.Collect$$rtexit$$00000004) for __rt_exit_exit
    rtexit.o(.ARM.Collect$$rtexit$$00000000) refers (Special) to rtexit2.o(.ARM.Collect$$rtexit$$00000003) for __rt_exit_ls
    rtexit.o(.ARM.Collect$$rtexit$$00000000) refers (Special) to rtexit2.o(.ARM.Collect$$rtexit$$00000002) for __rt_exit_prels_1
    rtexit.o(.ARM.exidx) refers (Special) to rtexit2.o(.ARM.Collect$$rtexit$$00000004) for __rt_exit_exit
    rtexit.o(.ARM.exidx) refers (Special) to rtexit2.o(.ARM.Collect$$rtexit$$00000003) for __rt_exit_ls
    rtexit.o(.ARM.exidx) refers (Special) to rtexit2.o(.ARM.Collect$$rtexit$$00000002) for __rt_exit_prels_1
    rtexit.o(.ARM.exidx) refers to rtexit.o(.ARM.Collect$$rtexit$$00000000) for .ARM.Collect$$rtexit$$00000000
    term_alloc.o(.text) refers (Special) to libshutdown2.o(.ARM.Collect$$libshutdown$$0000000E) for __rt_lib_shutdown_heap_2
    term_alloc.o(.text) refers to rt_heap_descriptor_intlibspace.o(.text) for __rt_heap_descriptor
    term_alloc.o(.text) refers to h1_final.o(.text) for __Heap_Finalize
    __raise.o(.text) refers to defsig.o(CL$$defsig) for __default_signal_handler
    defsig_general.o(.text) refers to sys_wrch.o(.text) for _ttywrch
    defsig_rtmem_inner.o(.text) refers to defsig_general.o(.text) for __default_signal_display
    sys_wrch.o(.text) refers (Special) to use_no_semi.o(.text) for __I$use$semihosting
    sys_wrch.o(.text) refers (Special) to indicate_semi.o(.text) for __semihosting_library_function
    sys_wrch_hlt.o(.text) refers (Special) to use_no_semi.o(.text) for __I$use$semihosting
    sys_wrch_hlt.o(.text) refers (Special) to indicate_semi.o(.text) for __semihosting_library_function
    rtexit2.o(.ARM.Collect$$rtexit$$00000003) refers to libshutdown.o(.ARM.Collect$$libshutdown$$00000000) for __rt_lib_shutdown
    rtexit2.o(.ARM.Collect$$rtexit$$00000004) refers to sys_exit.o(.text) for _sys_exit
    rtexit2.o(.ARM.exidx) refers to rtexit2.o(.ARM.Collect$$rtexit$$00000001) for .ARM.Collect$$rtexit$$00000001
    rtexit2.o(.ARM.exidx) refers to rtexit2.o(.ARM.Collect$$rtexit$$00000003) for .ARM.Collect$$rtexit$$00000003
    rtexit2.o(.ARM.exidx) refers to rtexit2.o(.ARM.Collect$$rtexit$$00000004) for .ARM.Collect$$rtexit$$00000004
    defsig.o(CL$$defsig) refers to defsig_abrt_inner.o(.text) for __rt_SIGABRT_inner
    defsig.o(CL$$defsig) refers to defsig_rtmem_inner.o(.text) for __rt_SIGRTMEM_inner
    libshutdown2.o(.ARM.Collect$$libshutdown$$0000000D) refers (Weak) to term_alloc.o(.text) for _terminate_alloc
    defsig_fpe_inner.o(.text) refers to defsig_general.o(.text) for __default_signal_display
    defsig_rtred_inner.o(.text) refers to defsig_general.o(.text) for __default_signal_display
    defsig_stak_inner.o(.text) refers to defsig_general.o(.text) for __default_signal_display
    defsig_pvfn_inner.o(.text) refers to defsig_general.o(.text) for __default_signal_display
    defsig_cppl_inner.o(.text) refers to defsig_general.o(.text) for __default_signal_display
    defsig_segv_inner.o(.text) refers to defsig_general.o(.text) for __default_signal_display
    defsig_other.o(.text) refers to defsig_general.o(.text) for __default_signal_display
    libshutdown.o(.ARM.Collect$$libshutdown$$00000000) refers (Special) to libshutdown2.o(.ARM.Collect$$libshutdown$$00000002) for __rt_lib_shutdown_cpp_1
    libshutdown.o(.ARM.Collect$$libshutdown$$00000000) refers (Special) to libshutdown2.o(.ARM.Collect$$libshutdown$$00000007) for __rt_lib_shutdown_fp_trap_1
    libshutdown.o(.ARM.Collect$$libshutdown$$00000000) refers (Special) to libshutdown2.o(.ARM.Collect$$libshutdown$$0000000F) for __rt_lib_shutdown_heap_1
    libshutdown.o(.ARM.Collect$$libshutdown$$00000000) refers (Special) to libshutdown2.o(.ARM.Collect$$libshutdown$$00000010) for __rt_lib_shutdown_return
    libshutdown.o(.ARM.Collect$$libshutdown$$00000000) refers (Special) to libshutdown2.o(.ARM.Collect$$libshutdown$$0000000A) for __rt_lib_shutdown_signal_1
    libshutdown.o(.ARM.Collect$$libshutdown$$00000000) refers (Special) to libshutdown2.o(.ARM.Collect$$libshutdown$$00000004) for __rt_lib_shutdown_stdio_1
    libshutdown.o(.ARM.Collect$$libshutdown$$00000000) refers (Special) to libshutdown2.o(.ARM.Collect$$libshutdown$$0000000C) for __rt_lib_shutdown_user_alloc_1
    module.o(.rodata._ZTI4Bomb) refers to private_typeinfo.cpp.o(.rodata._ZTVN10__cxxabiv117__class_type_infoE) for vtable for __cxxabiv1::__class_type_info
    module.o(.rodata._ZTI4Bomb) refers to module.o(.rodata._ZTS4Bomb) for typeinfo name for Bomb


==============================================================================

Removing Unused input sections from the image.

    Removing main.o(.ARM.exidx), (120 bytes).
    Removing main.o(.bss.num_created_modules), (4 bytes).
    Removing main.o(.rodata._ZL10explosion1), (2048 bytes).
    Removing main.o(.rodata._ZL10explosion2), (2048 bytes).
    Removing main.o(.rodata._ZL10explosion3), (2048 bytes).
    Removing main.o(.rodata._ZL10explosion4), (2048 bytes).
    Removing main.o(.rodata._ZL10explosion5), (2048 bytes).
    Removing main.o(.data.explosion), (24 bytes).
    Removing main.o(.data.anim), (4 bytes).
    Removing main.o(.bss.redrawSelector), (1 bytes).
    Removing main.o(.bss.data), (4 bytes).
    Removing main.o(.bss.prev_data), (4 bytes).
    Removing main.o(.bss.mc1flag), (4 bytes).
    Removing main.o(.bss.mc2flag), (4 bytes).
    Removing main.o(.rodata._ZL10explosion6), (2048 bytes).
    Removing main.o(.ARM.use_no_argv), (4 bytes).
    Removing dac.o(.ARM.exidx), (16 bytes).
    Removing pll.o(.ARM.exidx), (8 bytes).
    Removing random.o(.ARM.exidx), (24 bytes).
    Removing st7735.o(.ARM.exidx), (360 bytes).
    Removing slidepot.o(.ARM.exidx), (64 bytes).
    Removing sound.o(.ARM.exidx), (64 bytes).
    Removing sound.o(.bss.wav), (4 bytes).
    Removing timer0.o(.ARM.exidx), (32 bytes).
    Removing timer0.o(.bss.previous), (4 bytes).
    Removing timer0.o(.data.threshold), (4 bytes).
    Removing timer1.o(.ARM.exidx), (48 bytes).
    Removing uart.o(.ARM.exidx), (80 bytes).
    Removing fifo.o(.ARM.exidx), (48 bytes).
    Removing texas.o(.ARM.exidx), (40 bytes).
    Removing module.o(.ARM.exidx), (816 bytes).
    Removing module.o(.data.operations), (16 bytes).
    Removing edgeinterrupt.o(.text), (334 bytes).
    Removing edgeinterrupt.o(.ARM.exidx), (16 bytes).
    Removing new.cpp.o(.text), (0 bytes).
    Removing new.cpp.o(.text._ZSt17__throw_bad_allocv), (4 bytes).
    Removing new.cpp.o(.ARM.exidx.text._ZSt17__throw_bad_allocv), (8 bytes).
    Removing new.cpp.o(.ARM.exidx.text._Znwj), (8 bytes).
    Removing new.cpp.o(.text._ZnwjRKSt9nothrow_t), (4 bytes).
    Removing new.cpp.o(.ARM.exidx.text._ZnwjRKSt9nothrow_t), (8 bytes).
    Removing new.cpp.o(.ARM.exidx.text._Znaj), (8 bytes).
    Removing new.cpp.o(.text._ZnajRKSt9nothrow_t), (4 bytes).
    Removing new.cpp.o(.ARM.exidx.text._ZnajRKSt9nothrow_t), (8 bytes).
    Removing new.cpp.o(.ARM.exidx.text._ZdlPv), (8 bytes).
    Removing new.cpp.o(.text._ZdlPvRKSt9nothrow_t), (4 bytes).
    Removing new.cpp.o(.ARM.exidx.text._ZdlPvRKSt9nothrow_t), (8 bytes).
    Removing new.cpp.o(.ARM.exidx.text._ZdlPvj), (8 bytes).
    Removing new.cpp.o(.text._ZdaPv), (4 bytes).
    Removing new.cpp.o(.ARM.exidx.text._ZdaPv), (8 bytes).
    Removing new.cpp.o(.text._ZdaPvRKSt9nothrow_t), (4 bytes).
    Removing new.cpp.o(.ARM.exidx.text._ZdaPvRKSt9nothrow_t), (8 bytes).
    Removing new.cpp.o(.text._ZdaPvj), (4 bytes).
    Removing new.cpp.o(.ARM.exidx.text._ZdaPvj), (8 bytes).
    Removing new.cpp.o(.text._ZnwjSt11align_val_t), (74 bytes).
    Removing new.cpp.o(.ARM.exidx.text._ZnwjSt11align_val_t), (8 bytes).
    Removing new.cpp.o(.text._ZnwjSt11align_val_tRKSt9nothrow_t), (4 bytes).
    Removing new.cpp.o(.ARM.exidx.text._ZnwjSt11align_val_tRKSt9nothrow_t), (8 bytes).
    Removing new.cpp.o(.text._ZnajSt11align_val_t), (4 bytes).
    Removing new.cpp.o(.ARM.exidx.text._ZnajSt11align_val_t), (8 bytes).
    Removing new.cpp.o(.text._ZnajSt11align_val_tRKSt9nothrow_t), (4 bytes).
    Removing new.cpp.o(.ARM.exidx.text._ZnajSt11align_val_tRKSt9nothrow_t), (8 bytes).
    Removing new.cpp.o(.text._ZdlPvSt11align_val_t), (4 bytes).
    Removing new.cpp.o(.ARM.exidx.text._ZdlPvSt11align_val_t), (8 bytes).
    Removing new.cpp.o(.text._ZdlPvSt11align_val_tRKSt9nothrow_t), (4 bytes).
    Removing new.cpp.o(.ARM.exidx.text._ZdlPvSt11align_val_tRKSt9nothrow_t), (8 bytes).
    Removing new.cpp.o(.text._ZdlPvjSt11align_val_t), (6 bytes).
    Removing new.cpp.o(.ARM.exidx.text._ZdlPvjSt11align_val_t), (8 bytes).
    Removing new.cpp.o(.text._ZdaPvSt11align_val_t), (4 bytes).
    Removing new.cpp.o(.ARM.exidx.text._ZdaPvSt11align_val_t), (8 bytes).
    Removing new.cpp.o(.text._ZdaPvSt11align_val_tRKSt9nothrow_t), (4 bytes).
    Removing new.cpp.o(.ARM.exidx.text._ZdaPvSt11align_val_tRKSt9nothrow_t), (8 bytes).
    Removing new.cpp.o(.text._ZdaPvjSt11align_val_t), (6 bytes).
    Removing new.cpp.o(.ARM.exidx.text._ZdaPvjSt11align_val_t), (8 bytes).
    Removing new.cpp.o(.rodata._ZSt7nothrow), (1 bytes).
    Removing private_typeinfo.cpp.o(.text), (0 bytes).
    Removing private_typeinfo.cpp.o(.ARM.exidx.text._ZN10__cxxabiv116__shim_type_infoD2Ev), (8 bytes).
    Removing private_typeinfo.cpp.o(.text._ZN10__cxxabiv116__shim_type_infoD0Ev), (2 bytes).
    Removing private_typeinfo.cpp.o(.ARM.exidx.text._ZN10__cxxabiv116__shim_type_infoD0Ev), (8 bytes).
    Removing private_typeinfo.cpp.o(.ARM.exidx.text._ZNK10__cxxabiv116__shim_type_info5noop1Ev), (8 bytes).
    Removing private_typeinfo.cpp.o(.ARM.exidx.text._ZNK10__cxxabiv116__shim_type_info5noop2Ev), (8 bytes).
    Removing private_typeinfo.cpp.o(.text._ZN10__cxxabiv123__fundamental_type_infoD0Ev), (16 bytes).
    Removing private_typeinfo.cpp.o(.ARM.exidx.text._ZN10__cxxabiv123__fundamental_type_infoD0Ev), (8 bytes).
    Removing private_typeinfo.cpp.o(.text._ZN10__cxxabiv117__array_type_infoD0Ev), (16 bytes).
    Removing private_typeinfo.cpp.o(.ARM.exidx.text._ZN10__cxxabiv117__array_type_infoD0Ev), (8 bytes).
    Removing private_typeinfo.cpp.o(.text._ZN10__cxxabiv120__function_type_infoD0Ev), (16 bytes).
    Removing private_typeinfo.cpp.o(.ARM.exidx.text._ZN10__cxxabiv120__function_type_infoD0Ev), (8 bytes).
    Removing private_typeinfo.cpp.o(.text._ZN10__cxxabiv116__enum_type_infoD0Ev), (16 bytes).
    Removing private_typeinfo.cpp.o(.ARM.exidx.text._ZN10__cxxabiv116__enum_type_infoD0Ev), (8 bytes).
    Removing private_typeinfo.cpp.o(.ARM.exidx.text._ZN10__cxxabiv117__class_type_infoD0Ev), (8 bytes).
    Removing private_typeinfo.cpp.o(.ARM.exidx.text._ZN10__cxxabiv120__si_class_type_infoD0Ev), (8 bytes).
    Removing private_typeinfo.cpp.o(.ARM.exidx.text._ZN10__cxxabiv121__vmi_class_type_infoD0Ev), (8 bytes).
    Removing private_typeinfo.cpp.o(.text._ZN10__cxxabiv117__pbase_type_infoD0Ev), (16 bytes).
    Removing private_typeinfo.cpp.o(.ARM.exidx.text._ZN10__cxxabiv117__pbase_type_infoD0Ev), (8 bytes).
    Removing private_typeinfo.cpp.o(.text._ZN10__cxxabiv119__pointer_type_infoD0Ev), (16 bytes).
    Removing private_typeinfo.cpp.o(.ARM.exidx.text._ZN10__cxxabiv119__pointer_type_infoD0Ev), (8 bytes).
    Removing private_typeinfo.cpp.o(.text._ZN10__cxxabiv129__pointer_to_member_type_infoD0Ev), (16 bytes).
    Removing private_typeinfo.cpp.o(.ARM.exidx.text._ZN10__cxxabiv129__pointer_to_member_type_infoD0Ev), (8 bytes).
    Removing private_typeinfo.cpp.o(.text._ZNK10__cxxabiv123__fundamental_type_info9can_catchEPKNS_16__shim_type_infoERPv), (14 bytes).
    Removing private_typeinfo.cpp.o(.ARM.exidx.text._ZNK10__cxxabiv123__fundamental_type_info9can_catchEPKNS_16__shim_type_infoERPv), (8 bytes).
    Removing private_typeinfo.cpp.o(.text._ZNK10__cxxabiv117__array_type_info9can_catchEPKNS_16__shim_type_infoERPv), (4 bytes).
    Removing private_typeinfo.cpp.o(.ARM.exidx.text._ZNK10__cxxabiv117__array_type_info9can_catchEPKNS_16__shim_type_infoERPv), (8 bytes).
    Removing private_typeinfo.cpp.o(.text._ZNK10__cxxabiv120__function_type_info9can_catchEPKNS_16__shim_type_infoERPv), (4 bytes).
    Removing private_typeinfo.cpp.o(.ARM.exidx.text._ZNK10__cxxabiv120__function_type_info9can_catchEPKNS_16__shim_type_infoERPv), (8 bytes).
    Removing private_typeinfo.cpp.o(.text._ZNK10__cxxabiv116__enum_type_info9can_catchEPKNS_16__shim_type_infoERPv), (14 bytes).
    Removing private_typeinfo.cpp.o(.ARM.exidx.text._ZNK10__cxxabiv116__enum_type_info9can_catchEPKNS_16__shim_type_infoERPv), (8 bytes).
    Removing private_typeinfo.cpp.o(.ARM.exidx.text._ZNK10__cxxabiv117__class_type_info9can_catchEPKNS_16__shim_type_infoERPv), (8 bytes).
    Removing private_typeinfo.cpp.o(.ARM.exidx.text.__dynamic_cast), (8 bytes).
    Removing private_typeinfo.cpp.o(.text._ZNK10__cxxabiv117__class_type_info24process_found_base_classEPNS_19__dynamic_cast_infoEPvi), (48 bytes).
    Removing private_typeinfo.cpp.o(.ARM.exidx.text._ZNK10__cxxabiv117__class_type_info24process_found_base_classEPNS_19__dynamic_cast_infoEPvi), (8 bytes).
    Removing private_typeinfo.cpp.o(.ARM.exidx.text._ZNK10__cxxabiv117__class_type_info27has_unambiguous_public_baseEPNS_19__dynamic_cast_infoEPvi), (8 bytes).
    Removing private_typeinfo.cpp.o(.ARM.exidx.text._ZNK10__cxxabiv120__si_class_type_info27has_unambiguous_public_baseEPNS_19__dynamic_cast_infoEPvi), (8 bytes).
    Removing private_typeinfo.cpp.o(.ARM.exidx.text._ZNK10__cxxabiv122__base_class_type_info27has_unambiguous_public_baseEPNS_19__dynamic_cast_infoEPvi), (8 bytes).
    Removing private_typeinfo.cpp.o(.ARM.exidx.text._ZNK10__cxxabiv121__vmi_class_type_info27has_unambiguous_public_baseEPNS_19__dynamic_cast_infoEPvi), (8 bytes).
    Removing private_typeinfo.cpp.o(.text._ZNK10__cxxabiv117__pbase_type_info9can_catchEPKNS_16__shim_type_infoERPv), (90 bytes).
    Removing private_typeinfo.cpp.o(.ARM.exidx.text._ZNK10__cxxabiv117__pbase_type_info9can_catchEPKNS_16__shim_type_infoERPv), (8 bytes).
    Removing private_typeinfo.cpp.o(.text._ZNK10__cxxabiv119__pointer_type_info9can_catchEPKNS_16__shim_type_infoERPv), (410 bytes).
    Removing private_typeinfo.cpp.o(.ARM.exidx.text._ZNK10__cxxabiv119__pointer_type_info9can_catchEPKNS_16__shim_type_infoERPv), (8 bytes).
    Removing private_typeinfo.cpp.o(.text._ZNK10__cxxabiv119__pointer_type_info16can_catch_nestedEPKNS_16__shim_type_infoE), (136 bytes).
    Removing private_typeinfo.cpp.o(.ARM.exidx.text._ZNK10__cxxabiv119__pointer_type_info16can_catch_nestedEPKNS_16__shim_type_infoE), (8 bytes).
    Removing private_typeinfo.cpp.o(.text._ZNK10__cxxabiv129__pointer_to_member_type_info16can_catch_nestedEPKNS_16__shim_type_infoE), (82 bytes).
    Removing private_typeinfo.cpp.o(.ARM.exidx.text._ZNK10__cxxabiv129__pointer_to_member_type_info16can_catch_nestedEPKNS_16__shim_type_infoE), (8 bytes).
    Removing private_typeinfo.cpp.o(.text._ZNK10__cxxabiv129__pointer_to_member_type_info9can_catchEPKNS_16__shim_type_infoERPv), (170 bytes).
    Removing private_typeinfo.cpp.o(.ARM.exidx.text._ZNK10__cxxabiv129__pointer_to_member_type_info9can_catchEPKNS_16__shim_type_infoERPv), (8 bytes).
    Removing private_typeinfo.cpp.o(.ARM.exidx.text._ZNK10__cxxabiv117__class_type_info29process_static_type_above_dstEPNS_19__dynamic_cast_infoEPKvS4_i), (8 bytes).
    Removing private_typeinfo.cpp.o(.text._ZNK10__cxxabiv117__class_type_info29process_static_type_below_dstEPNS_19__dynamic_cast_infoEPKvi), (18 bytes).
    Removing private_typeinfo.cpp.o(.ARM.exidx.text._ZNK10__cxxabiv117__class_type_info29process_static_type_below_dstEPNS_19__dynamic_cast_infoEPKvi), (8 bytes).
    Removing private_typeinfo.cpp.o(.ARM.exidx.text._ZNK10__cxxabiv121__vmi_class_type_info16search_below_dstEPNS_19__dynamic_cast_infoEPKvib), (8 bytes).
    Removing private_typeinfo.cpp.o(.text._ZNK10__cxxabiv122__base_class_type_info16search_above_dstEPNS_19__dynamic_cast_infoEPKvS4_ib), (52 bytes).
    Removing private_typeinfo.cpp.o(.ARM.exidx.text._ZNK10__cxxabiv122__base_class_type_info16search_above_dstEPNS_19__dynamic_cast_infoEPKvS4_ib), (8 bytes).
    Removing private_typeinfo.cpp.o(.text._ZNK10__cxxabiv122__base_class_type_info16search_below_dstEPNS_19__dynamic_cast_infoEPKvib), (52 bytes).
    Removing private_typeinfo.cpp.o(.ARM.exidx.text._ZNK10__cxxabiv122__base_class_type_info16search_below_dstEPNS_19__dynamic_cast_infoEPKvib), (8 bytes).
    Removing private_typeinfo.cpp.o(.ARM.exidx.text._ZNK10__cxxabiv120__si_class_type_info16search_below_dstEPNS_19__dynamic_cast_infoEPKvib), (8 bytes).
    Removing private_typeinfo.cpp.o(.ARM.exidx.text._ZNK10__cxxabiv117__class_type_info16search_below_dstEPNS_19__dynamic_cast_infoEPKvib), (8 bytes).
    Removing private_typeinfo.cpp.o(.ARM.exidx.text._ZNK10__cxxabiv121__vmi_class_type_info16search_above_dstEPNS_19__dynamic_cast_infoEPKvS4_ib), (8 bytes).
    Removing private_typeinfo.cpp.o(.ARM.exidx.text._ZNK10__cxxabiv120__si_class_type_info16search_above_dstEPNS_19__dynamic_cast_infoEPKvS4_ib), (8 bytes).
    Removing private_typeinfo.cpp.o(.ARM.exidx.text._ZNK10__cxxabiv117__class_type_info16search_above_dstEPNS_19__dynamic_cast_infoEPKvS4_ib), (8 bytes).
    Removing private_typeinfo.cpp.o(.rodata._ZTSN10__cxxabiv117__pbase_type_infoE), (34 bytes).
    Removing private_typeinfo.cpp.o(.rodata._ZTIN10__cxxabiv117__pbase_type_infoE), (12 bytes).
    Removing private_typeinfo.cpp.o(.rodata._ZTSN10__cxxabiv119__pointer_type_infoE), (36 bytes).
    Removing private_typeinfo.cpp.o(.rodata._ZTIN10__cxxabiv119__pointer_type_infoE), (12 bytes).
    Removing private_typeinfo.cpp.o(.rodata._ZTSN10__cxxabiv120__function_type_infoE), (37 bytes).
    Removing private_typeinfo.cpp.o(.rodata._ZTIN10__cxxabiv120__function_type_infoE), (12 bytes).
    Removing private_typeinfo.cpp.o(.rodata._ZTSN10__cxxabiv129__pointer_to_member_type_infoE), (46 bytes).
    Removing private_typeinfo.cpp.o(.rodata._ZTIN10__cxxabiv129__pointer_to_member_type_infoE), (12 bytes).
    Removing private_typeinfo.cpp.o(.rodata._ZZNK10__cxxabiv129__pointer_to_member_type_info9can_catchEPKNS_16__shim_type_infoERPvE12null_ptr_rep), (8 bytes).
    Removing private_typeinfo.cpp.o(.rodata._ZZNK10__cxxabiv129__pointer_to_member_type_info9can_catchEPKNS_16__shim_type_infoERPvE12null_ptr_rep_0), (4 bytes).
    Removing private_typeinfo.cpp.o(.rodata._ZTVN10__cxxabiv116__shim_type_infoE), (28 bytes).
    Removing private_typeinfo.cpp.o(.rodata._ZTVN10__cxxabiv123__fundamental_type_infoE), (28 bytes).
    Removing private_typeinfo.cpp.o(.rodata._ZTSN10__cxxabiv123__fundamental_type_infoE), (40 bytes).
    Removing private_typeinfo.cpp.o(.rodata._ZTIN10__cxxabiv123__fundamental_type_infoE), (12 bytes).
    Removing private_typeinfo.cpp.o(.rodata._ZTSv), (2 bytes).
    Removing private_typeinfo.cpp.o(.rodata._ZTIv), (8 bytes).
    Removing private_typeinfo.cpp.o(.rodata._ZTSPv), (3 bytes).
    Removing private_typeinfo.cpp.o(.rodata._ZTIPv), (16 bytes).
    Removing private_typeinfo.cpp.o(.rodata._ZTSPKv), (4 bytes).
    Removing private_typeinfo.cpp.o(.rodata._ZTIPKv), (16 bytes).
    Removing private_typeinfo.cpp.o(.rodata._ZTSDn), (3 bytes).
    Removing private_typeinfo.cpp.o(.rodata._ZTIDn), (8 bytes).
    Removing private_typeinfo.cpp.o(.rodata._ZTSPDn), (4 bytes).
    Removing private_typeinfo.cpp.o(.rodata._ZTIPDn), (16 bytes).
    Removing private_typeinfo.cpp.o(.rodata._ZTSPKDn), (5 bytes).
    Removing private_typeinfo.cpp.o(.rodata._ZTIPKDn), (16 bytes).
    Removing private_typeinfo.cpp.o(.rodata._ZTSb), (2 bytes).
    Removing private_typeinfo.cpp.o(.rodata._ZTIb), (8 bytes).
    Removing private_typeinfo.cpp.o(.rodata._ZTSPb), (3 bytes).
    Removing private_typeinfo.cpp.o(.rodata._ZTIPb), (16 bytes).
    Removing private_typeinfo.cpp.o(.rodata._ZTSPKb), (4 bytes).
    Removing private_typeinfo.cpp.o(.rodata._ZTIPKb), (16 bytes).
    Removing private_typeinfo.cpp.o(.rodata._ZTSw), (2 bytes).
    Removing private_typeinfo.cpp.o(.rodata._ZTIw), (8 bytes).
    Removing private_typeinfo.cpp.o(.rodata._ZTSPw), (3 bytes).
    Removing private_typeinfo.cpp.o(.rodata._ZTIPw), (16 bytes).
    Removing private_typeinfo.cpp.o(.rodata._ZTSPKw), (4 bytes).
    Removing private_typeinfo.cpp.o(.rodata._ZTIPKw), (16 bytes).
    Removing private_typeinfo.cpp.o(.rodata._ZTSc), (2 bytes).
    Removing private_typeinfo.cpp.o(.rodata._ZTIc), (8 bytes).
    Removing private_typeinfo.cpp.o(.rodata._ZTSPc), (3 bytes).
    Removing private_typeinfo.cpp.o(.rodata._ZTIPc), (16 bytes).
    Removing private_typeinfo.cpp.o(.rodata._ZTSPKc), (4 bytes).
    Removing private_typeinfo.cpp.o(.rodata._ZTIPKc), (16 bytes).
    Removing private_typeinfo.cpp.o(.rodata._ZTSh), (2 bytes).
    Removing private_typeinfo.cpp.o(.rodata._ZTIh), (8 bytes).
    Removing private_typeinfo.cpp.o(.rodata._ZTSPh), (3 bytes).
    Removing private_typeinfo.cpp.o(.rodata._ZTIPh), (16 bytes).
    Removing private_typeinfo.cpp.o(.rodata._ZTSPKh), (4 bytes).
    Removing private_typeinfo.cpp.o(.rodata._ZTIPKh), (16 bytes).
    Removing private_typeinfo.cpp.o(.rodata._ZTSa), (2 bytes).
    Removing private_typeinfo.cpp.o(.rodata._ZTIa), (8 bytes).
    Removing private_typeinfo.cpp.o(.rodata._ZTSPa), (3 bytes).
    Removing private_typeinfo.cpp.o(.rodata._ZTIPa), (16 bytes).
    Removing private_typeinfo.cpp.o(.rodata._ZTSPKa), (4 bytes).
    Removing private_typeinfo.cpp.o(.rodata._ZTIPKa), (16 bytes).
    Removing private_typeinfo.cpp.o(.rodata._ZTSs), (2 bytes).
    Removing private_typeinfo.cpp.o(.rodata._ZTIs), (8 bytes).
    Removing private_typeinfo.cpp.o(.rodata._ZTSPs), (3 bytes).
    Removing private_typeinfo.cpp.o(.rodata._ZTIPs), (16 bytes).
    Removing private_typeinfo.cpp.o(.rodata._ZTSPKs), (4 bytes).
    Removing private_typeinfo.cpp.o(.rodata._ZTIPKs), (16 bytes).
    Removing private_typeinfo.cpp.o(.rodata._ZTSt), (2 bytes).
    Removing private_typeinfo.cpp.o(.rodata._ZTIt), (8 bytes).
    Removing private_typeinfo.cpp.o(.rodata._ZTSPt), (3 bytes).
    Removing private_typeinfo.cpp.o(.rodata._ZTIPt), (16 bytes).
    Removing private_typeinfo.cpp.o(.rodata._ZTSPKt), (4 bytes).
    Removing private_typeinfo.cpp.o(.rodata._ZTIPKt), (16 bytes).
    Removing private_typeinfo.cpp.o(.rodata._ZTSi), (2 bytes).
    Removing private_typeinfo.cpp.o(.rodata._ZTIi), (8 bytes).
    Removing private_typeinfo.cpp.o(.rodata._ZTSPi), (3 bytes).
    Removing private_typeinfo.cpp.o(.rodata._ZTIPi), (16 bytes).
    Removing private_typeinfo.cpp.o(.rodata._ZTSPKi), (4 bytes).
    Removing private_typeinfo.cpp.o(.rodata._ZTIPKi), (16 bytes).
    Removing private_typeinfo.cpp.o(.rodata._ZTSj), (2 bytes).
    Removing private_typeinfo.cpp.o(.rodata._ZTIj), (8 bytes).
    Removing private_typeinfo.cpp.o(.rodata._ZTSPj), (3 bytes).
    Removing private_typeinfo.cpp.o(.rodata._ZTIPj), (16 bytes).
    Removing private_typeinfo.cpp.o(.rodata._ZTSPKj), (4 bytes).
    Removing private_typeinfo.cpp.o(.rodata._ZTIPKj), (16 bytes).
    Removing private_typeinfo.cpp.o(.rodata._ZTSl), (2 bytes).
    Removing private_typeinfo.cpp.o(.rodata._ZTIl), (8 bytes).
    Removing private_typeinfo.cpp.o(.rodata._ZTSPl), (3 bytes).
    Removing private_typeinfo.cpp.o(.rodata._ZTIPl), (16 bytes).
    Removing private_typeinfo.cpp.o(.rodata._ZTSPKl), (4 bytes).
    Removing private_typeinfo.cpp.o(.rodata._ZTIPKl), (16 bytes).
    Removing private_typeinfo.cpp.o(.rodata._ZTSm), (2 bytes).
    Removing private_typeinfo.cpp.o(.rodata._ZTIm), (8 bytes).
    Removing private_typeinfo.cpp.o(.rodata._ZTSPm), (3 bytes).
    Removing private_typeinfo.cpp.o(.rodata._ZTIPm), (16 bytes).
    Removing private_typeinfo.cpp.o(.rodata._ZTSPKm), (4 bytes).
    Removing private_typeinfo.cpp.o(.rodata._ZTIPKm), (16 bytes).
    Removing private_typeinfo.cpp.o(.rodata._ZTSx), (2 bytes).
    Removing private_typeinfo.cpp.o(.rodata._ZTIx), (8 bytes).
    Removing private_typeinfo.cpp.o(.rodata._ZTSPx), (3 bytes).
    Removing private_typeinfo.cpp.o(.rodata._ZTIPx), (16 bytes).
    Removing private_typeinfo.cpp.o(.rodata._ZTSPKx), (4 bytes).
    Removing private_typeinfo.cpp.o(.rodata._ZTIPKx), (16 bytes).
    Removing private_typeinfo.cpp.o(.rodata._ZTSy), (2 bytes).
    Removing private_typeinfo.cpp.o(.rodata._ZTIy), (8 bytes).
    Removing private_typeinfo.cpp.o(.rodata._ZTSPy), (3 bytes).
    Removing private_typeinfo.cpp.o(.rodata._ZTIPy), (16 bytes).
    Removing private_typeinfo.cpp.o(.rodata._ZTSPKy), (4 bytes).
    Removing private_typeinfo.cpp.o(.rodata._ZTIPKy), (16 bytes).
    Removing private_typeinfo.cpp.o(.rodata._ZTSn), (2 bytes).
    Removing private_typeinfo.cpp.o(.rodata._ZTIn), (8 bytes).
    Removing private_typeinfo.cpp.o(.rodata._ZTSPn), (3 bytes).
    Removing private_typeinfo.cpp.o(.rodata._ZTIPn), (16 bytes).
    Removing private_typeinfo.cpp.o(.rodata._ZTSPKn), (4 bytes).
    Removing private_typeinfo.cpp.o(.rodata._ZTIPKn), (16 bytes).
    Removing private_typeinfo.cpp.o(.rodata._ZTSo), (2 bytes).
    Removing private_typeinfo.cpp.o(.rodata._ZTIo), (8 bytes).
    Removing private_typeinfo.cpp.o(.rodata._ZTSPo), (3 bytes).
    Removing private_typeinfo.cpp.o(.rodata._ZTIPo), (16 bytes).
    Removing private_typeinfo.cpp.o(.rodata._ZTSPKo), (4 bytes).
    Removing private_typeinfo.cpp.o(.rodata._ZTIPKo), (16 bytes).
    Removing private_typeinfo.cpp.o(.rodata._ZTSDh), (3 bytes).
    Removing private_typeinfo.cpp.o(.rodata._ZTIDh), (8 bytes).
    Removing private_typeinfo.cpp.o(.rodata._ZTSPDh), (4 bytes).
    Removing private_typeinfo.cpp.o(.rodata._ZTIPDh), (16 bytes).
    Removing private_typeinfo.cpp.o(.rodata._ZTSPKDh), (5 bytes).
    Removing private_typeinfo.cpp.o(.rodata._ZTIPKDh), (16 bytes).
    Removing private_typeinfo.cpp.o(.rodata._ZTSf), (2 bytes).
    Removing private_typeinfo.cpp.o(.rodata._ZTIf), (8 bytes).
    Removing private_typeinfo.cpp.o(.rodata._ZTSPf), (3 bytes).
    Removing private_typeinfo.cpp.o(.rodata._ZTIPf), (16 bytes).
    Removing private_typeinfo.cpp.o(.rodata._ZTSPKf), (4 bytes).
    Removing private_typeinfo.cpp.o(.rodata._ZTIPKf), (16 bytes).
    Removing private_typeinfo.cpp.o(.rodata._ZTSd), (2 bytes).
    Removing private_typeinfo.cpp.o(.rodata._ZTId), (8 bytes).
    Removing private_typeinfo.cpp.o(.rodata._ZTSPd), (3 bytes).
    Removing private_typeinfo.cpp.o(.rodata._ZTIPd), (16 bytes).
    Removing private_typeinfo.cpp.o(.rodata._ZTSPKd), (4 bytes).
    Removing private_typeinfo.cpp.o(.rodata._ZTIPKd), (16 bytes).
    Removing private_typeinfo.cpp.o(.rodata._ZTSe), (2 bytes).
    Removing private_typeinfo.cpp.o(.rodata._ZTIe), (8 bytes).
    Removing private_typeinfo.cpp.o(.rodata._ZTSPe), (3 bytes).
    Removing private_typeinfo.cpp.o(.rodata._ZTIPe), (16 bytes).
    Removing private_typeinfo.cpp.o(.rodata._ZTSPKe), (4 bytes).
    Removing private_typeinfo.cpp.o(.rodata._ZTIPKe), (16 bytes).
    Removing private_typeinfo.cpp.o(.rodata._ZTSg), (2 bytes).
    Removing private_typeinfo.cpp.o(.rodata._ZTIg), (8 bytes).
    Removing private_typeinfo.cpp.o(.rodata._ZTSPg), (3 bytes).
    Removing private_typeinfo.cpp.o(.rodata._ZTIPg), (16 bytes).
    Removing private_typeinfo.cpp.o(.rodata._ZTSPKg), (4 bytes).
    Removing private_typeinfo.cpp.o(.rodata._ZTIPKg), (16 bytes).
    Removing private_typeinfo.cpp.o(.rodata._ZTSDu), (3 bytes).
    Removing private_typeinfo.cpp.o(.rodata._ZTIDu), (8 bytes).
    Removing private_typeinfo.cpp.o(.rodata._ZTSPDu), (4 bytes).
    Removing private_typeinfo.cpp.o(.rodata._ZTIPDu), (16 bytes).
    Removing private_typeinfo.cpp.o(.rodata._ZTSPKDu), (5 bytes).
    Removing private_typeinfo.cpp.o(.rodata._ZTIPKDu), (16 bytes).
    Removing private_typeinfo.cpp.o(.rodata._ZTSDs), (3 bytes).
    Removing private_typeinfo.cpp.o(.rodata._ZTIDs), (8 bytes).
    Removing private_typeinfo.cpp.o(.rodata._ZTSPDs), (4 bytes).
    Removing private_typeinfo.cpp.o(.rodata._ZTIPDs), (16 bytes).
    Removing private_typeinfo.cpp.o(.rodata._ZTSPKDs), (5 bytes).
    Removing private_typeinfo.cpp.o(.rodata._ZTIPKDs), (16 bytes).
    Removing private_typeinfo.cpp.o(.rodata._ZTSDi), (3 bytes).
    Removing private_typeinfo.cpp.o(.rodata._ZTIDi), (8 bytes).
    Removing private_typeinfo.cpp.o(.rodata._ZTSPDi), (4 bytes).
    Removing private_typeinfo.cpp.o(.rodata._ZTIPDi), (16 bytes).
    Removing private_typeinfo.cpp.o(.rodata._ZTSPKDi), (5 bytes).
    Removing private_typeinfo.cpp.o(.rodata._ZTIPKDi), (16 bytes).
    Removing private_typeinfo.cpp.o(.rodata._ZTVN10__cxxabiv117__array_type_infoE), (28 bytes).
    Removing private_typeinfo.cpp.o(.rodata._ZTSN10__cxxabiv117__array_type_infoE), (34 bytes).
    Removing private_typeinfo.cpp.o(.rodata._ZTIN10__cxxabiv117__array_type_infoE), (12 bytes).
    Removing private_typeinfo.cpp.o(.rodata._ZTVN10__cxxabiv120__function_type_infoE), (28 bytes).
    Removing private_typeinfo.cpp.o(.rodata._ZTVN10__cxxabiv116__enum_type_infoE), (28 bytes).
    Removing private_typeinfo.cpp.o(.rodata._ZTSN10__cxxabiv116__enum_type_infoE), (33 bytes).
    Removing private_typeinfo.cpp.o(.rodata._ZTIN10__cxxabiv116__enum_type_infoE), (12 bytes).
    Removing private_typeinfo.cpp.o(.rodata._ZTVN10__cxxabiv117__pbase_type_infoE), (28 bytes).
    Removing private_typeinfo.cpp.o(.rodata._ZTVN10__cxxabiv119__pointer_type_infoE), (28 bytes).
    Removing private_typeinfo.cpp.o(.rodata._ZTVN10__cxxabiv129__pointer_to_member_type_infoE), (28 bytes).
    Removing cxa_handlers.cpp.o(.text), (0 bytes).
    Removing cxa_handlers.cpp.o(.text._ZSt14get_unexpectedv), (12 bytes).
    Removing cxa_handlers.cpp.o(.ARM.exidx.text._ZSt14get_unexpectedv), (8 bytes).
    Removing cxa_handlers.cpp.o(.text._ZSt12__unexpectedPFvvE), (52 bytes).
    Removing cxa_handlers.cpp.o(.ARM.exidx.text._ZSt12__unexpectedPFvvE), (8 bytes).
    Removing cxa_handlers.cpp.o(.text._ZSt10unexpectedv), (14 bytes).
    Removing cxa_handlers.cpp.o(.ARM.exidx.text._ZSt10unexpectedv), (8 bytes).
    Removing cxa_handlers.cpp.o(.text._ZSt13get_terminatev), (12 bytes).
    Removing cxa_handlers.cpp.o(.ARM.exidx.text._ZSt13get_terminatev), (8 bytes).
    Removing cxa_handlers.cpp.o(.text._ZSt11__terminatePFvvE), (48 bytes).
    Removing cxa_handlers.cpp.o(.ARM.exidx.text._ZSt11__terminatePFvvE), (8 bytes).
    Removing cxa_handlers.cpp.o(.text._ZSt9terminatev), (14 bytes).
    Removing cxa_handlers.cpp.o(.ARM.exidx.text._ZSt9terminatev), (8 bytes).
    Removing cxa_handlers.cpp.o(.ARM.exidx.text._ZSt15get_new_handlerv), (8 bytes).
    Removing cxa_virtual.cpp.o(.text), (0 bytes).
    Removing cxa_virtual.cpp.o(.text.__cxa_pure_virtual), (40 bytes).
    Removing cxa_virtual.cpp.o(.ARM.exidx.text.__cxa_pure_virtual), (8 bytes).
    Removing cxa_virtual.cpp.o(.text.__cxa_deleted_virtual), (44 bytes).
    Removing cxa_virtual.cpp.o(.ARM.exidx.text.__cxa_deleted_virtual), (8 bytes).
    Removing stdlib_typeinfo.cpp.o(.text), (0 bytes).
    Removing stdlib_typeinfo.cpp.o(.ARM.exidx.text._ZNSt9type_infoD2Ev), (8 bytes).
    Removing stdlib_typeinfo.cpp.o(.text._ZNSt9type_infoD0Ev), (6 bytes).
    Removing stdlib_typeinfo.cpp.o(.ARM.exidx.text._ZNSt9type_infoD0Ev), (8 bytes).
    Removing stdlib_typeinfo.cpp.o(.text._ZNSt8bad_castC2Ev), (14 bytes).
    Removing stdlib_typeinfo.cpp.o(.ARM.exidx.text._ZNSt8bad_castC2Ev), (8 bytes).
    Removing stdlib_typeinfo.cpp.o(.text._ZNSt8bad_castD2Ev), (4 bytes).
    Removing stdlib_typeinfo.cpp.o(.ARM.exidx.text._ZNSt8bad_castD2Ev), (8 bytes).
    Removing stdlib_typeinfo.cpp.o(.text._ZNSt8bad_castD0Ev), (16 bytes).
    Removing stdlib_typeinfo.cpp.o(.ARM.exidx.text._ZNSt8bad_castD0Ev), (8 bytes).
    Removing stdlib_typeinfo.cpp.o(.text._ZNKSt8bad_cast4whatEv), (20 bytes).
    Removing stdlib_typeinfo.cpp.o(.ARM.exidx.text._ZNKSt8bad_cast4whatEv), (8 bytes).
    Removing stdlib_typeinfo.cpp.o(.text._ZNSt10bad_typeidC2Ev), (14 bytes).
    Removing stdlib_typeinfo.cpp.o(.ARM.exidx.text._ZNSt10bad_typeidC2Ev), (8 bytes).
    Removing stdlib_typeinfo.cpp.o(.text._ZNSt10bad_typeidD2Ev), (4 bytes).
    Removing stdlib_typeinfo.cpp.o(.ARM.exidx.text._ZNSt10bad_typeidD2Ev), (8 bytes).
    Removing stdlib_typeinfo.cpp.o(.text._ZNSt10bad_typeidD0Ev), (16 bytes).
    Removing stdlib_typeinfo.cpp.o(.ARM.exidx.text._ZNSt10bad_typeidD0Ev), (8 bytes).
    Removing stdlib_typeinfo.cpp.o(.text._ZNKSt10bad_typeid4whatEv), (20 bytes).
    Removing stdlib_typeinfo.cpp.o(.ARM.exidx.text._ZNKSt10bad_typeid4whatEv), (8 bytes).
    Removing stdlib_typeinfo.cpp.o(.rodata._ZTVSt8bad_cast), (20 bytes).
    Removing stdlib_typeinfo.cpp.o(.rodata._ZTVSt10bad_typeid), (20 bytes).
    Removing stdlib_typeinfo.cpp.o(.rodata._ZTVSt9type_info), (16 bytes).
    Removing stdlib_typeinfo.cpp.o(.rodata._ZTSSt8bad_cast), (12 bytes).
    Removing stdlib_typeinfo.cpp.o(.rodata._ZTISt8bad_cast), (12 bytes).
    Removing stdlib_typeinfo.cpp.o(.rodata._ZTSSt10bad_typeid), (15 bytes).
    Removing stdlib_typeinfo.cpp.o(.rodata._ZTISt10bad_typeid), (12 bytes).
    Removing abort_message.cpp.o(.text), (0 bytes).
    Removing abort_message.cpp.o(.text.abort_message), (4 bytes).
    Removing abort_message.cpp.o(.ARM.exidx.text.abort_message), (8 bytes).
    Removing cxa_default_handlers.cpp.o(.text), (0 bytes).
    Removing cxa_default_handlers.cpp.o(.text._ZSt14set_unexpectedPFvvE), (30 bytes).
    Removing cxa_default_handlers.cpp.o(.ARM.exidx.text._ZSt14set_unexpectedPFvvE), (8 bytes).
    Removing cxa_default_handlers.cpp.o(.text._ZSt13set_terminatePFvvE), (30 bytes).
    Removing cxa_default_handlers.cpp.o(.ARM.exidx.text._ZSt13set_terminatePFvvE), (8 bytes).
    Removing cxa_default_handlers.cpp.o(.text._ZSt15set_new_handlerPFvvE), (18 bytes).
    Removing cxa_default_handlers.cpp.o(.ARM.exidx.text._ZSt15set_new_handlerPFvvE), (8 bytes).
    Removing cxa_default_handlers.cpp.o(.data.__cxa_terminate_handler), (4 bytes).
    Removing cxa_default_handlers.cpp.o(.data.__cxa_unexpected_handler), (4 bytes).
    Removing stdlib_exception.cpp.o(.text), (0 bytes).
    Removing stdlib_exception.cpp.o(.text._ZNSt9exceptionD2Ev), (2 bytes).
    Removing stdlib_exception.cpp.o(.ARM.exidx.text._ZNSt9exceptionD2Ev), (8 bytes).
    Removing stdlib_exception.cpp.o(.text._ZNSt9exceptionD0Ev), (6 bytes).
    Removing stdlib_exception.cpp.o(.ARM.exidx.text._ZNSt9exceptionD0Ev), (8 bytes).
    Removing stdlib_exception.cpp.o(.text._ZNKSt9exception4whatEv), (20 bytes).
    Removing stdlib_exception.cpp.o(.ARM.exidx.text._ZNKSt9exception4whatEv), (8 bytes).
    Removing stdlib_exception.cpp.o(.text._ZNSt13bad_exceptionD0Ev), (6 bytes).
    Removing stdlib_exception.cpp.o(.ARM.exidx.text._ZNSt13bad_exceptionD0Ev), (8 bytes).
    Removing stdlib_exception.cpp.o(.text._ZNKSt13bad_exception4whatEv), (24 bytes).
    Removing stdlib_exception.cpp.o(.ARM.exidx.text._ZNKSt13bad_exception4whatEv), (8 bytes).
    Removing stdlib_exception.cpp.o(.text._ZNSt9bad_allocC2Ev), (14 bytes).
    Removing stdlib_exception.cpp.o(.ARM.exidx.text._ZNSt9bad_allocC2Ev), (8 bytes).
    Removing stdlib_exception.cpp.o(.text._ZNSt9bad_allocD0Ev), (6 bytes).
    Removing stdlib_exception.cpp.o(.ARM.exidx.text._ZNSt9bad_allocD0Ev), (8 bytes).
    Removing stdlib_exception.cpp.o(.text._ZNKSt9bad_alloc4whatEv), (20 bytes).
    Removing stdlib_exception.cpp.o(.ARM.exidx.text._ZNKSt9bad_alloc4whatEv), (8 bytes).
    Removing stdlib_exception.cpp.o(.text._ZNSt20bad_array_new_lengthC2Ev), (14 bytes).
    Removing stdlib_exception.cpp.o(.ARM.exidx.text._ZNSt20bad_array_new_lengthC2Ev), (8 bytes).
    Removing stdlib_exception.cpp.o(.text._ZNSt20bad_array_new_lengthD0Ev), (6 bytes).
    Removing stdlib_exception.cpp.o(.ARM.exidx.text._ZNSt20bad_array_new_lengthD0Ev), (8 bytes).
    Removing stdlib_exception.cpp.o(.text._ZNKSt20bad_array_new_length4whatEv), (28 bytes).
    Removing stdlib_exception.cpp.o(.ARM.exidx.text._ZNKSt20bad_array_new_length4whatEv), (8 bytes).
    Removing stdlib_exception.cpp.o(.rodata._ZTVSt9bad_alloc), (20 bytes).
    Removing stdlib_exception.cpp.o(.rodata._ZTVSt20bad_array_new_length), (20 bytes).
    Removing stdlib_exception.cpp.o(.rodata._ZTVSt9exception), (20 bytes).
    Removing stdlib_exception.cpp.o(.rodata._ZTSSt9exception), (13 bytes).
    Removing stdlib_exception.cpp.o(.rodata._ZTISt9exception), (8 bytes).
    Removing stdlib_exception.cpp.o(.rodata._ZTVSt13bad_exception), (20 bytes).
    Removing stdlib_exception.cpp.o(.rodata._ZTSSt13bad_exception), (18 bytes).
    Removing stdlib_exception.cpp.o(.rodata._ZTISt13bad_exception), (12 bytes).
    Removing stdlib_exception.cpp.o(.rodata._ZTSSt9bad_alloc), (13 bytes).
    Removing stdlib_exception.cpp.o(.rodata._ZTISt9bad_alloc), (12 bytes).
    Removing stdlib_exception.cpp.o(.rodata._ZTSSt20bad_array_new_length), (25 bytes).
    Removing stdlib_exception.cpp.o(.rodata._ZTISt20bad_array_new_length), (12 bytes).

403 unused section(s) (total 19256 bytes) removed from the image.

==============================================================================

Image Symbol Table

    Local Symbols

    Symbol Name                              Value     Ov Type        Size  Object(Section)

    ../clib/angel/boardlib.s                 0x00000000   Number         0  boardinit1.o ABSOLUTE
    ../clib/angel/boardlib.s                 0x00000000   Number         0  boardinit2.o ABSOLUTE
    ../clib/angel/boardlib.s                 0x00000000   Number         0  boardinit3.o ABSOLUTE
    ../clib/angel/boardlib.s                 0x00000000   Number         0  boardshut.o ABSOLUTE
    ../clib/angel/handlers.s                 0x00000000   Number         0  __scatter_copy.o ABSOLUTE
    ../clib/angel/handlers.s                 0x00000000   Number         0  __scatter_zi.o ABSOLUTE
    ../clib/angel/kernel.s                   0x00000000   Number         0  __rtentry.o ABSOLUTE
    ../clib/angel/kernel.s                   0x00000000   Number         0  __rtentry2.o ABSOLUTE
    ../clib/angel/kernel.s                   0x00000000   Number         0  __rtentry4.o ABSOLUTE
    ../clib/angel/kernel.s                   0x00000000   Number         0  rtexit.o ABSOLUTE
    ../clib/angel/kernel.s                   0x00000000   Number         0  rtexit2.o ABSOLUTE
    ../clib/angel/rt.s                       0x00000000   Number         0  rt_heap_descriptor.o ABSOLUTE
    ../clib/angel/rt.s                       0x00000000   Number         0  rt_heap_descriptor_intlibspace.o ABSOLUTE
    ../clib/angel/rt.s                       0x00000000   Number         0  rt_raise.o ABSOLUTE
    ../clib/angel/scatter.s                  0x00000000   Number         0  __scatter.o ABSOLUTE
    ../clib/angel/startup.s                  0x00000000   Number         0  __main.o ABSOLUTE
    ../clib/angel/sys.s                      0x00000000   Number         0  mutex_dummy.o ABSOLUTE
    ../clib/angel/sys.s                      0x00000000   Number         0  libspace.o ABSOLUTE
    ../clib/angel/sys.s                      0x00000000   Number         0  use_no_semi.o ABSOLUTE
    ../clib/angel/sys.s                      0x00000000   Number         0  indicate_semi.o ABSOLUTE
    ../clib/angel/sys.s                      0x00000000   Number         0  sys_stackheap_outer.o ABSOLUTE
    ../clib/angel/sysapp.c                   0x00000000   Number         0  sys_exit.o ABSOLUTE
    ../clib/angel/sysapp.c                   0x00000000   Number         0  sys_exit_hlt.o ABSOLUTE
    ../clib/angel/sysapp.c                   0x00000000   Number         0  sys_command.o ABSOLUTE
    ../clib/angel/sysapp.c                   0x00000000   Number         0  sys_command_hlt.o ABSOLUTE
    ../clib/angel/sysapp.c                   0x00000000   Number         0  sys_wrch.o ABSOLUTE
    ../clib/angel/sysapp.c                   0x00000000   Number         0  sys_wrch_hlt.o ABSOLUTE
    ../clib/arm_runtime.c                    0x00000000   Number         0  init_aeabi.o ABSOLUTE
    ../clib/arm_runtime.c                    0x00000000   Number         0  init_aeabi.o ABSOLUTE
    ../clib/armsys.c                         0x00000000   Number         0  _get_argv.o ABSOLUTE
    ../clib/armsys.c                         0x00000000   Number         0  argv_veneer.o ABSOLUTE
    ../clib/armsys.c                         0x00000000   Number         0  argv_veneer.o ABSOLUTE
    ../clib/armsys.c                         0x00000000   Number         0  _get_argv_nomalloc.o ABSOLUTE
    ../clib/armsys.c                         0x00000000   Number         0  no_argv.o ABSOLUTE
    ../clib/heap1.c                          0x00000000   Number         0  h1_alloc.o ABSOLUTE
    ../clib/heap1.c                          0x00000000   Number         0  h1_free.o ABSOLUTE
    ../clib/heap1.c                          0x00000000   Number         0  h1_memalign.o ABSOLUTE
    ../clib/heap1.c                          0x00000000   Number         0  h1_alloc_threads.o ABSOLUTE
    ../clib/heap1.c                          0x00000000   Number         0  h1_free_threads.o ABSOLUTE
    ../clib/heap1.c                          0x00000000   Number         0  h1_memalign_threads.o ABSOLUTE
    ../clib/heap1.c                          0x00000000   Number         0  h1_init.o ABSOLUTE
    ../clib/heap1.c                          0x00000000   Number         0  h1_init_threads.o ABSOLUTE
    ../clib/heap1.c                          0x00000000   Number         0  h1_extend.o ABSOLUTE
    ../clib/heap1.c                          0x00000000   Number         0  h1_extend_threads.o ABSOLUTE
    ../clib/heap1.c                          0x00000000   Number         0  h1_final.o ABSOLUTE
    ../clib/heap1.c                          0x00000000   Number         0  h1_final_threads.o ABSOLUTE
    ../clib/heap2.c                          0x00000000   Number         0  heap2.o ABSOLUTE
    ../clib/heap2.c                          0x00000000   Number         0  heap2_threads.o ABSOLUTE
    ../clib/heap2.c                          0x00000000   Number         0  fdtree.o ABSOLUTE
    ../clib/heapalloc.c                      0x00000000   Number         0  malloc.o ABSOLUTE
    ../clib/heapalloc.c                      0x00000000   Number         0  free.o ABSOLUTE
    ../clib/heapalloc.c                      0x00000000   Number         0  hguard.o ABSOLUTE
    ../clib/heapalloc.c                      0x00000000   Number         0  init_alloc.o ABSOLUTE
    ../clib/heapalloc.c                      0x00000000   Number         0  heapstubs.o ABSOLUTE
    ../clib/heapalloc.c                      0x00000000   Number         0  hrguard.o ABSOLUTE
    ../clib/heapalloc.c                      0x00000000   Number         0  term_alloc.o ABSOLUTE
    ../clib/heapaux.c                        0x00000000   Number         0  heapauxi.o ABSOLUTE
    ../clib/heapaux.c                        0x00000000   Number         0  heapauxa.o ABSOLUTE
    ../clib/libinit.s                        0x00000000   Number         0  libinit2.o ABSOLUTE
    ../clib/libinit.s                        0x00000000   Number         0  libinit.o ABSOLUTE
    ../clib/libinit.s                        0x00000000   Number         0  libshutdown2.o ABSOLUTE
    ../clib/libinit.s                        0x00000000   Number         0  libshutdown.o ABSOLUTE
    ../clib/maybe.s                          0x00000000   Number         0  maybetermalloc1.o ABSOLUTE
    ../clib/maybe.s                          0x00000000   Number         0  maybetermalloc2.o ABSOLUTE
    ../clib/memcpset.s                       0x00000000   Number         0  rt_memclr_w.o ABSOLUTE
    ../clib/memcpset.s                       0x00000000   Number         0  strcmpv7em.o ABSOLUTE
    ../clib/memcpset.s                       0x00000000   Number         0  rt_memcpy_w.o ABSOLUTE
    ../clib/r_arm_target.c                   0x00000000   Number         0  __ARM_resolve_target1.o ABSOLUTE
    ../clib/r_arm_target.c                   0x00000000   Number         0  __ARM_resolve_target1_abs32.o ABSOLUTE
    ../clib/signal.c                         0x00000000   Number         0  defsig_abrt_outer.o ABSOLUTE
    ../clib/signal.c                         0x00000000   Number         0  defsig_abrt_formal.o ABSOLUTE
    ../clib/signal.c                         0x00000000   Number         0  defsig_exit.o ABSOLUTE
    ../clib/signal.c                         0x00000000   Number         0  defsig_abrt_inner.o ABSOLUTE
    ../clib/signal.c                         0x00000000   Number         0  defsig_rtmem_outer.o ABSOLUTE
    ../clib/signal.c                         0x00000000   Number         0  defsig_rtmem_formal.o ABSOLUTE
    ../clib/signal.c                         0x00000000   Number         0  __raise.o ABSOLUTE
    ../clib/signal.c                         0x00000000   Number         0  defsig_general.o ABSOLUTE
    ../clib/signal.c                         0x00000000   Number         0  defsig_rtmem_inner.o ABSOLUTE
    ../clib/signal.c                         0x00000000   Number         0  defsig_fpe_inner.o ABSOLUTE
    ../clib/signal.c                         0x00000000   Number         0  defsig_rtred_inner.o ABSOLUTE
    ../clib/signal.c                         0x00000000   Number         0  defsig_stak_inner.o ABSOLUTE
    ../clib/signal.c                         0x00000000   Number         0  defsig_pvfn_inner.o ABSOLUTE
    ../clib/signal.c                         0x00000000   Number         0  defsig_cppl_inner.o ABSOLUTE
    ../clib/signal.c                         0x00000000   Number         0  defsig_segv_inner.o ABSOLUTE
    ../clib/signal.c                         0x00000000   Number         0  defsig_other.o ABSOLUTE
    ../clib/signal.s                         0x00000000   Number         0  defsig.o ABSOLUTE
    ../clib/stdlib.c                         0x00000000   Number         0  abort.o ABSOLUTE
    ../clib/stdlib.c                         0x00000000   Number         0  exit.o ABSOLUTE
    ../fplib/faddsub.s                       0x00000000   Number         0  faddsub_clz.o ABSOLUTE
    ../fplib/fmul.s                          0x00000000   Number         0  fmul.o ABSOLUTE
    ../fplib/fnaninf.s                       0x00000000   Number         0  fnaninf.o ABSOLUTE
    ../fplib/fpinit.s                        0x00000000   Number         0  fpinit.o ABSOLUTE
    ../fplib/fpinit_empty.s                  0x00000000   Number         0  fpinit_empty.o ABSOLUTE
    ../fplib/fretinf.s                       0x00000000   Number         0  fretinf.o ABSOLUTE
    ../fplib/usenofp.s                       0x00000000   Number         0  usenofp.o ABSOLUTE
    DAC.cpp                                  0x00000000   Number         0  dac.o ABSOLUTE
    EdgeInterrupt.cpp                        0x00000000   Number         0  edgeinterrupt.o ABSOLUTE
    FIFO.cpp                                 0x00000000   Number         0  fifo.o ABSOLUTE
    Module.cpp                               0x00000000   Number         0  module.o ABSOLUTE
    PLL.cpp                                  0x00000000   Number         0  pll.o ABSOLUTE
    ST7735.cpp                               0x00000000   Number         0  st7735.o ABSOLUTE
    SlidePot.cpp                             0x00000000   Number         0  slidepot.o ABSOLUTE
    Sound.cpp                                0x00000000   Number         0  sound.o ABSOLUTE
    TExaS.cpp                                0x00000000   Number         0  texas.o ABSOLUTE
    Timer0.cpp                               0x00000000   Number         0  timer0.o ABSOLUTE
    Timer1.cpp                               0x00000000   Number         0  timer1.o ABSOLUTE
    UART.cpp                                 0x00000000   Number         0  uart.o ABSOLUTE
    abort_message.cpp                        0x00000000   Number         0  abort_message.cpp.o ABSOLUTE
    cxa_default_handlers.cpp                 0x00000000   Number         0  cxa_default_handlers.cpp.o ABSOLUTE
    cxa_handlers.cpp                         0x00000000   Number         0  cxa_handlers.cpp.o ABSOLUTE
    cxa_virtual.cpp                          0x00000000   Number         0  cxa_virtual.cpp.o ABSOLUTE
    dc.s                                     0x00000000   Number         0  dc.o ABSOLUTE
    main.cpp                                 0x00000000   Number         0  main.o ABSOLUTE
    new.cpp                                  0x00000000   Number         0  new.cpp.o ABSOLUTE
    private_typeinfo.cpp                     0x00000000   Number         0  private_typeinfo.cpp.o ABSOLUTE
    random.cpp                               0x00000000   Number         0  random.o ABSOLUTE
    startup_TM4C123.s                        0x00000000   Number         0  startup_tm4c123.o ABSOLUTE
    stdlib_exception.cpp                     0x00000000   Number         0  stdlib_exception.cpp.o ABSOLUTE
    stdlib_typeinfo.cpp                      0x00000000   Number         0  stdlib_typeinfo.cpp.o ABSOLUTE
    RESET                                    0x00000000   Section      620  startup_tm4c123.o(RESET)
    !!!main                                  0x0000026c   Section        8  __main.o(!!!main)
    !!!scatter                               0x00000274   Section       52  __scatter.o(!!!scatter)
    !!handler_copy                           0x000002a8   Section       26  __scatter_copy.o(!!handler_copy)
    !!handler_zi                             0x000002c4   Section       28  __scatter_zi.o(!!handler_zi)
    .ARM.Collect$$libinit$$00000000          0x000002e0   Section        2  libinit.o(.ARM.Collect$$libinit$$00000000)
    .ARM.Collect$$libinit$$00000002          0x000002e2   Section        0  libinit2.o(.ARM.Collect$$libinit$$00000002)
    .ARM.Collect$$libinit$$00000004          0x000002e2   Section        0  libinit2.o(.ARM.Collect$$libinit$$00000004)
    .ARM.Collect$$libinit$$00000006          0x000002e2   Section        0  libinit2.o(.ARM.Collect$$libinit$$00000006)
    .ARM.Collect$$libinit$$00000007          0x000002e2   Section        8  libinit2.o(.ARM.Collect$$libinit$$00000007)
    .ARM.Collect$$libinit$$0000000C          0x000002ea   Section        0  libinit2.o(.ARM.Collect$$libinit$$0000000C)
    .ARM.Collect$$libinit$$0000000E          0x000002ea   Section        0  libinit2.o(.ARM.Collect$$libinit$$0000000E)
    .ARM.Collect$$libinit$$00000010          0x000002ea   Section        0  libinit2.o(.ARM.Collect$$libinit$$00000010)
    .ARM.Collect$$libinit$$00000013          0x000002ea   Section        0  libinit2.o(.ARM.Collect$$libinit$$00000013)
    .ARM.Collect$$libinit$$00000015          0x000002ea   Section        0  libinit2.o(.ARM.Collect$$libinit$$00000015)
    .ARM.Collect$$libinit$$00000017          0x000002ea   Section        0  libinit2.o(.ARM.Collect$$libinit$$00000017)
    .ARM.Collect$$libinit$$00000019          0x000002ea   Section        0  libinit2.o(.ARM.Collect$$libinit$$00000019)
    .ARM.Collect$$libinit$$0000001B          0x000002ea   Section        0  libinit2.o(.ARM.Collect$$libinit$$0000001B)
    .ARM.Collect$$libinit$$0000001D          0x000002ea   Section        0  libinit2.o(.ARM.Collect$$libinit$$0000001D)
    .ARM.Collect$$libinit$$0000001F          0x000002ea   Section        0  libinit2.o(.ARM.Collect$$libinit$$0000001F)
    .ARM.Collect$$libinit$$00000021          0x000002ea   Section        0  libinit2.o(.ARM.Collect$$libinit$$00000021)
    .ARM.Collect$$libinit$$00000023          0x000002ea   Section        0  libinit2.o(.ARM.Collect$$libinit$$00000023)
    .ARM.Collect$$libinit$$00000025          0x000002ea   Section        0  libinit2.o(.ARM.Collect$$libinit$$00000025)
    .ARM.Collect$$libinit$$00000027          0x000002ea   Section        0  libinit2.o(.ARM.Collect$$libinit$$00000027)
    .ARM.Collect$$libinit$$0000002E          0x000002ea   Section        0  libinit2.o(.ARM.Collect$$libinit$$0000002E)
    .ARM.Collect$$libinit$$00000030          0x000002ea   Section        0  libinit2.o(.ARM.Collect$$libinit$$00000030)
    .ARM.Collect$$libinit$$00000032          0x000002ea   Section        0  libinit2.o(.ARM.Collect$$libinit$$00000032)
    .ARM.Collect$$libinit$$00000033          0x000002ea   Section        4  libinit2.o(.ARM.Collect$$libinit$$00000033)
    .ARM.Collect$$libinit$$00000034          0x000002ee   Section        0  libinit2.o(.ARM.Collect$$libinit$$00000034)
    .ARM.Collect$$libinit$$00000035          0x000002ee   Section        2  libinit2.o(.ARM.Collect$$libinit$$00000035)
    .ARM.Collect$$libshutdown$$00000000      0x000002f0   Section        2  libshutdown.o(.ARM.Collect$$libshutdown$$00000000)
    .ARM.Collect$$libshutdown$$00000002      0x000002f2   Section        0  libshutdown2.o(.ARM.Collect$$libshutdown$$00000002)
    .ARM.Collect$$libshutdown$$00000004      0x000002f2   Section        0  libshutdown2.o(.ARM.Collect$$libshutdown$$00000004)
    .ARM.Collect$$libshutdown$$00000007      0x000002f2   Section        0  libshutdown2.o(.ARM.Collect$$libshutdown$$00000007)
    .ARM.Collect$$libshutdown$$0000000A      0x000002f2   Section        0  libshutdown2.o(.ARM.Collect$$libshutdown$$0000000A)
    .ARM.Collect$$libshutdown$$0000000C      0x000002f2   Section        0  libshutdown2.o(.ARM.Collect$$libshutdown$$0000000C)
    .ARM.Collect$$libshutdown$$0000000F      0x000002f2   Section        0  libshutdown2.o(.ARM.Collect$$libshutdown$$0000000F)
    .ARM.Collect$$libshutdown$$00000010      0x000002f2   Section        2  libshutdown2.o(.ARM.Collect$$libshutdown$$00000010)
    .ARM.Collect$$rtentry$$00000000          0x000002f4   Section        0  __rtentry.o(.ARM.Collect$$rtentry$$00000000)
    .ARM.Collect$$rtentry$$00000002          0x000002f4   Section        0  __rtentry2.o(.ARM.Collect$$rtentry$$00000002)
    .ARM.Collect$$rtentry$$00000004          0x000002f4   Section        6  __rtentry4.o(.ARM.Collect$$rtentry$$00000004)
    .ARM.Collect$$rtentry$$00000009          0x000002fa   Section        0  __rtentry2.o(.ARM.Collect$$rtentry$$00000009)
    .ARM.Collect$$rtentry$$0000000A          0x000002fa   Section        4  __rtentry2.o(.ARM.Collect$$rtentry$$0000000A)
    .ARM.Collect$$rtentry$$0000000C          0x000002fe   Section        0  __rtentry2.o(.ARM.Collect$$rtentry$$0000000C)
    .ARM.Collect$$rtentry$$0000000D          0x000002fe   Section        8  __rtentry2.o(.ARM.Collect$$rtentry$$0000000D)
    .ARM.Collect$$rtexit$$00000000           0x00000306   Section        2  rtexit.o(.ARM.Collect$$rtexit$$00000000)
    .ARM.Collect$$rtexit$$00000002           0x00000308   Section        0  rtexit2.o(.ARM.Collect$$rtexit$$00000002)
    .ARM.Collect$$rtexit$$00000003           0x00000308   Section        4  rtexit2.o(.ARM.Collect$$rtexit$$00000003)
    .ARM.Collect$$rtexit$$00000004           0x0000030c   Section        6  rtexit2.o(.ARM.Collect$$rtexit$$00000004)
    .text                                    0x00000314   Section      296  startup_tm4c123.o(.text)
    __cxx_global_var_init                    0x0000043d   Thumb Code    22  main.o(.text)
    [Anonymous Symbol]                       0x0000043c   Section        0  main.o(.text)
    __cxx_global_var_init.1                  0x00000455   Thumb Code    26  main.o(.text)
    __cxx_global_var_init.2                  0x00000471   Thumb Code   438  main.o(.text)
    _GLOBAL__sub_I_main.cpp                  0x00000e35   Thumb Code    16  main.o(.text)
    [Anonymous Symbol]                       0x00000e44   Section        0  dac.o(.text)
    [Anonymous Symbol]                       0x00000eb0   Section        0  pll.o(.text)
    [Anonymous Symbol]                       0x00000f3c   Section        0  random.o(.text)
    [Anonymous Symbol]                       0x00000f98   Section        0  st7735.o(.text)
    commonInit(unsigned char const*)         0x00000ffd   Thumb Code   418  st7735.o(.text)
    commandList(unsigned char const*)        0x000012b5   Thumb Code   170  st7735.o(.text)
    writecommand(unsigned char)              0x00001361   Thumb Code    90  st7735.o(.text)
    writedata(unsigned char)                 0x000013bd   Thumb Code    58  st7735.o(.text)
    setAddrWindow(unsigned char, unsigned char, unsigned char, unsigned char) 0x0000146d   Thumb Code   148  st7735.o(.text)
    pushColor(unsigned short)                0x00001501   Thumb Code    28  st7735.o(.text)
    deselect()                               0x0000151d   Thumb Code    36  st7735.o(.text)
    [Anonymous Symbol]                       0x00002b24   Section        0  slidepot.o(.text)
    [Anonymous Symbol]                       0x00002cf4   Section        0  sound.o(.text)
    [Anonymous Symbol]                       0x00002e74   Section        0  timer0.o(.text)
    __cxx_global_var_init                    0x00002f4d   Thumb Code    26  timer1.o(.text)
    [Anonymous Symbol]                       0x00002f4c   Section        0  timer1.o(.text)
    _GLOBAL__sub_I_Timer1.cpp                0x00003ab1   Thumb Code     8  timer1.o(.text)
    __cxx_global_var_init                    0x00003ab9   Thumb Code    16  uart.o(.text)
    [Anonymous Symbol]                       0x00003ab8   Section        0  uart.o(.text)
    _GLOBAL__sub_I_UART.cpp                  0x00003b61   Thumb Code     8  uart.o(.text)
    [Anonymous Symbol]                       0x00003b68   Section        0  fifo.o(.text)
    [Anonymous Symbol]                       0x00003bb0   Section        0  texas.o(.text)
    [Anonymous Symbol]                       0x00003e3c   Section        0  module.o(.text)
    __cxx_global_var_init                    0x000056ed   Thumb Code    30  module.o(.text)
    __cxx_global_var_init.21                 0x0000570d   Thumb Code    32  module.o(.text)
    __cxx_global_var_init.22                 0x0000572d   Thumb Code    30  module.o(.text)
    __cxx_global_var_init.23                 0x0000574d   Thumb Code    30  module.o(.text)
    __cxx_global_var_init.24                 0x0000576d   Thumb Code    30  module.o(.text)
    __cxx_global_var_init.25                 0x0000578d   Thumb Code    30  module.o(.text)
    __cxx_global_var_init.26                 0x000057ad   Thumb Code    30  module.o(.text)
    __cxx_global_var_init.27                 0x000057cd   Thumb Code    30  module.o(.text)
    __cxx_global_var_init.28                 0x000057ed   Thumb Code    30  module.o(.text)
    __cxx_global_var_init.29                 0x0000580d   Thumb Code    32  module.o(.text)
    __cxx_global_var_init.30                 0x0000582d   Thumb Code    30  module.o(.text)
    __cxx_global_var_init.31                 0x0000584d   Thumb Code    32  module.o(.text)
    __cxx_global_var_init.32                 0x0000586d   Thumb Code    30  module.o(.text)
    __cxx_global_var_init.33                 0x0000588d   Thumb Code    30  module.o(.text)
    __cxx_global_var_init.34                 0x000058ad   Thumb Code    32  module.o(.text)
    __cxx_global_var_init.35                 0x000058cd   Thumb Code    32  module.o(.text)
    __cxx_global_var_init.36                 0x000058ed   Thumb Code    32  module.o(.text)
    __cxx_global_var_init.37                 0x0000590d   Thumb Code    30  module.o(.text)
    __cxx_global_var_init.38                 0x0000592d   Thumb Code    30  module.o(.text)
    __cxx_global_var_init.39                 0x0000594d   Thumb Code    30  module.o(.text)
    __cxx_global_var_init.40                 0x0000596d   Thumb Code    32  module.o(.text)
    __cxx_global_var_init.41                 0x0000598d   Thumb Code    32  module.o(.text)
    __cxx_global_var_init.42                 0x000059ad   Thumb Code    30  module.o(.text)
    __cxx_global_var_init.43                 0x000059cd   Thumb Code    30  module.o(.text)
    __cxx_global_var_init.44                 0x000059ed   Thumb Code    30  module.o(.text)
    __cxx_global_var_init.45                 0x00005a0d   Thumb Code    28  module.o(.text)
    __cxx_global_var_init.46                 0x00005a29   Thumb Code    30  module.o(.text)
    __cxx_global_var_init.47                 0x00005a49   Thumb Code    38  module.o(.text)
    __cxx_global_var_init.48                 0x00005a71   Thumb Code   696  module.o(.text)
    __cxx_global_var_init.49                 0x00005d29   Thumb Code   232  module.o(.text)
    __cxx_global_var_init.50                 0x00005e11   Thumb Code    90  module.o(.text)
    __cxx_global_var_init.51                 0x00005e6d   Thumb Code   570  module.o(.text)
    _GLOBAL__sub_I_Module.cpp                0x00006991   Thumb Code   132  module.o(.text)
    .text                                    0x00006a14   Section        0  heapauxi.o(.text)
    .text                                    0x00006a1c   Section        0  init_aeabi.o(.text)
    .text                                    0x00006a40   Section        0  h1_alloc.o(.text)
    .text                                    0x00006a9e   Section        0  h1_free.o(.text)
    .text                                    0x00006aec   Section       78  rt_memclr_w.o(.text)
    .text                                    0x00006b40   Section      124  strcmpv7em.o(.text)
    .text                                    0x00006bbc   Section        0  sys_exit.o(.text)
    .text                                    0x00006bc8   Section        8  rt_heap_descriptor_intlibspace.o(.text)
    .text                                    0x00006bd0   Section        0  hguard.o(.text)
    .text                                    0x00006bd4   Section        0  init_alloc.o(.text)
    .text                                    0x00006c5e   Section        0  h1_init.o(.text)
    .text                                    0x00006c6c   Section        8  libspace.o(.text)
    .text                                    0x00006c74   Section        2  use_no_semi.o(.text)
    .text                                    0x00006c76   Section        0  indicate_semi.o(.text)
    .text                                    0x00006c76   Section       74  sys_stackheap_outer.o(.text)
    .text                                    0x00006cc0   Section        0  maybetermalloc1.o(.text)
    .text                                    0x00006cc0   Section        0  h1_extend.o(.text)
    .text                                    0x00006cf4   Section        0  exit.o(.text)
    .text                                    0x00006d06   Section        0  defsig_exit.o(.text)
    .text                                    0x00006d10   Section        0  defsig_rtmem_outer.o(.text)
    .text                                    0x00006d1e   Section        0  defsig_general.o(.text)
    .text                                    0x00006d50   Section        0  defsig_rtmem_inner.o(.text)
    .text                                    0x00006da0   Section        0  sys_wrch.o(.text)
    [Anonymous Symbol]                       0x00006dae   Section        0  private_typeinfo.cpp.o(.text._ZN10__cxxabiv116__shim_type_infoD2Ev)
    [Anonymous Symbol]                       0x00006db2   Section        0  private_typeinfo.cpp.o(.text._ZN10__cxxabiv117__class_type_infoD0Ev)
    [Anonymous Symbol]                       0x00006dc2   Section        0  private_typeinfo.cpp.o(.text._ZN10__cxxabiv120__si_class_type_infoD0Ev)
    [Anonymous Symbol]                       0x00006dd2   Section        0  private_typeinfo.cpp.o(.text._ZN10__cxxabiv121__vmi_class_type_infoD0Ev)
    [Anonymous Symbol]                       0x00006de2   Section        0  private_typeinfo.cpp.o(.text._ZNK10__cxxabiv116__shim_type_info5noop1Ev)
    [Anonymous Symbol]                       0x00006de4   Section        0  private_typeinfo.cpp.o(.text._ZNK10__cxxabiv116__shim_type_info5noop2Ev)
    [Anonymous Symbol]                       0x00006de6   Section        0  private_typeinfo.cpp.o(.text._ZNK10__cxxabiv117__class_type_info16search_above_dstEPNS_19__dynamic_cast_infoEPKvS4_ib)
    [Anonymous Symbol]                       0x00006e24   Section        0  private_typeinfo.cpp.o(.text._ZNK10__cxxabiv117__class_type_info16search_below_dstEPNS_19__dynamic_cast_infoEPKvib)
    [Anonymous Symbol]                       0x00006ec4   Section        0  private_typeinfo.cpp.o(.text._ZNK10__cxxabiv117__class_type_info27has_unambiguous_public_baseEPNS_19__dynamic_cast_infoEPvi)
    [Anonymous Symbol]                       0x00006f08   Section        0  private_typeinfo.cpp.o(.text._ZNK10__cxxabiv117__class_type_info29process_static_type_above_dstEPNS_19__dynamic_cast_infoEPKvS4_i)
    [Anonymous Symbol]                       0x00006f6a   Section        0  private_typeinfo.cpp.o(.text._ZNK10__cxxabiv117__class_type_info9can_catchEPKNS_16__shim_type_infoERPv)
    [Anonymous Symbol]                       0x00006fdc   Section        0  private_typeinfo.cpp.o(.text._ZNK10__cxxabiv120__si_class_type_info16search_above_dstEPNS_19__dynamic_cast_infoEPKvS4_ib)
    [Anonymous Symbol]                       0x00007032   Section        0  private_typeinfo.cpp.o(.text._ZNK10__cxxabiv120__si_class_type_info16search_below_dstEPNS_19__dynamic_cast_infoEPKvib)
    [Anonymous Symbol]                       0x00007114   Section        0  private_typeinfo.cpp.o(.text._ZNK10__cxxabiv120__si_class_type_info27has_unambiguous_public_baseEPNS_19__dynamic_cast_infoEPvi)
    [Anonymous Symbol]                       0x00007168   Section        0  private_typeinfo.cpp.o(.text._ZNK10__cxxabiv121__vmi_class_type_info16search_above_dstEPNS_19__dynamic_cast_infoEPKvS4_ib)
    [Anonymous Symbol]                       0x00007294   Section        0  private_typeinfo.cpp.o(.text._ZNK10__cxxabiv121__vmi_class_type_info16search_below_dstEPNS_19__dynamic_cast_infoEPKvib)
    [Anonymous Symbol]                       0x000074fc   Section        0  private_typeinfo.cpp.o(.text._ZNK10__cxxabiv121__vmi_class_type_info27has_unambiguous_public_baseEPNS_19__dynamic_cast_infoEPvi)
    [Anonymous Symbol]                       0x0000758c   Section        0  private_typeinfo.cpp.o(.text._ZNK10__cxxabiv122__base_class_type_info27has_unambiguous_public_baseEPNS_19__dynamic_cast_infoEPvi)
    [Anonymous Symbol]                       0x000075c2   Section        0  stdlib_typeinfo.cpp.o(.text._ZNSt9type_infoD2Ev)
    [Anonymous Symbol]                       0x000075c4   Section        0  cxa_handlers.cpp.o(.text._ZSt15get_new_handlerv)
    [Anonymous Symbol]                       0x000075d0   Section        0  new.cpp.o(.text._ZdlPv)
    [Anonymous Symbol]                       0x000075d4   Section        0  new.cpp.o(.text._ZdlPvj)
    [Anonymous Symbol]                       0x000075d8   Section        0  new.cpp.o(.text._Znaj)
    [Anonymous Symbol]                       0x000075dc   Section        0  new.cpp.o(.text._Znwj)
    [Anonymous Symbol]                       0x00007604   Section        0  private_typeinfo.cpp.o(.text.__dynamic_cast)
    x$fpl$fadd                               0x000076b0   Section      196  faddsub_clz.o(x$fpl$fadd)
    _fadd1                                   0x000076bf   Thumb Code     0  faddsub_clz.o(x$fpl$fadd)
    x$fpl$fmul                               0x00007774   Section      258  fmul.o(x$fpl$fmul)
    x$fpl$fnaninf                            0x00007876   Section      140  fnaninf.o(x$fpl$fnaninf)
    x$fpl$fretinf                            0x00007902   Section       10  fretinf.o(x$fpl$fretinf)
    x$fpl$fsub                               0x0000790c   Section      234  faddsub_clz.o(x$fpl$fsub)
    _fsub1                                   0x0000791b   Thumb Code     0  faddsub_clz.o(x$fpl$fsub)
    Rcmd2green                               0x000079f6   Data          13  st7735.o(.rodata._ZL10Rcmd2green)
    [Anonymous Symbol]                       0x000079f6   Section        0  st7735.o(.rodata._ZL10Rcmd2green)
    x$fpl$usenofp                            0x000079f6   Section        0  usenofp.o(x$fpl$usenofp)
    bExplosion                               0x00007a03   Data        6440  sound.o(.rodata._ZL10bExplosion)
    [Anonymous Symbol]                       0x00007a03   Section        0  sound.o(.rodata._ZL10bExplosion)
    blue_abort                               0x0000932c   Data        3200  module.o(.rodata._ZL10blue_abort)
    [Anonymous Symbol]                       0x0000932c   Section        0  module.o(.rodata._ZL10blue_abort)
    blue_press                               0x00009fac   Data        3200  module.o(.rodata._ZL10blue_press)
    [Anonymous Symbol]                       0x00009fac   Section        0  module.o(.rodata._ZL10blue_press)
    white_hold                               0x0000ac2c   Data        3200  module.o(.rodata._ZL10white_hold)
    [Anonymous Symbol]                       0x0000ac2c   Section        0  module.o(.rodata._ZL10white_hold)
    white_stop                               0x0000b8ac   Data        3200  module.o(.rodata._ZL10white_stop)
    [Anonymous Symbol]                       0x0000b8ac   Section        0  module.o(.rodata._ZL10white_stop)
    emptymodule                              0x0000c52c   Data        1800  module.o(.rodata._ZL11emptymodule)
    [Anonymous Symbol]                       0x0000c52c   Section        0  module.o(.rodata._ZL11emptymodule)
    frequencies                              0x0000cc34   Data          40  module.o(.rodata._ZL11frequencies)
    [Anonymous Symbol]                       0x0000cc34   Section        0  module.o(.rodata._ZL11frequencies)
    smallCircle                              0x0000cc5c   Data          36  st7735.o(.rodata._ZL11smallCircle)
    [Anonymous Symbol]                       0x0000cc5c   Section        0  st7735.o(.rodata._ZL11smallCircle)
    white_abort                              0x0000cc80   Data        3200  module.o(.rodata._ZL11white_abort)
    [Anonymous Symbol]                       0x0000cc80   Section        0  module.o(.rodata._ZL11white_abort)
    white_press                              0x0000d900   Data        3200  module.o(.rodata._ZL11white_press)
    [Anonymous Symbol]                       0x0000d900   Section        0  module.o(.rodata._ZL11white_press)
    yellow_hold                              0x0000e580   Data        3200  module.o(.rodata._ZL11yellow_hold)
    [Anonymous Symbol]                       0x0000e580   Section        0  module.o(.rodata._ZL11yellow_hold)
    yellow_stop                              0x0000f200   Data        3200  module.o(.rodata._ZL11yellow_stop)
    [Anonymous Symbol]                       0x0000f200   Section        0  module.o(.rodata._ZL11yellow_stop)
    solved_light                             0x0000fe80   Data          50  module.o(.rodata._ZL12solved_light)
    [Anonymous Symbol]                       0x0000fe80   Section        0  module.o(.rodata._ZL12solved_light)
    yellow_press                             0x0000feb2   Data        3200  module.o(.rodata._ZL12yellow_press)
    [Anonymous Symbol]                       0x0000feb2   Section        0  module.o(.rodata._ZL12yellow_press)
    yellow_bumper                            0x00010b32   Data        3200  module.o(.rodata._ZL13yellow_bumper)
    [Anonymous Symbol]                       0x00010b32   Section        0  module.o(.rodata._ZL13yellow_bumper)
    unsolved_light                           0x000117b2   Data          50  module.o(.rodata._ZL14unsolved_light)
    [Anonymous Symbol]                       0x000117b2   Section        0  module.o(.rodata._ZL14unsolved_light)
    Bcmd                                     0x000117e4   Data         103  st7735.o(.rodata._ZL4Bcmd)
    [Anonymous Symbol]                       0x000117e4   Section        0  st7735.o(.rodata._ZL4Bcmd)
    Font                                     0x0001184b   Data        1275  st7735.o(.rodata._ZL4Font)
    [Anonymous Symbol]                       0x0001184b   Section        0  st7735.o(.rodata._ZL4Font)
    dBfs                                     0x00011d46   Data         512  st7735.o(.rodata._ZL4dBfs)
    [Anonymous Symbol]                       0x00011d46   Section        0  st7735.o(.rodata._ZL4dBfs)
    Rcmd1                                    0x00011f46   Data          59  st7735.o(.rodata._ZL5Rcmd1)
    [Anonymous Symbol]                       0x00011f46   Section        0  st7735.o(.rodata._ZL5Rcmd1)
    Rcmd3                                    0x00011f81   Data          43  st7735.o(.rodata._ZL5Rcmd3)
    [Anonymous Symbol]                       0x00011f81   Section        0  st7735.o(.rodata._ZL5Rcmd3)
    title                                    0x00011fac   Data        8880  main.o(.rodata._ZL5title)
    [Anonymous Symbol]                       0x00011fac   Section        0  main.o(.rodata._ZL5title)
    circle                                   0x0001425c   Data          60  st7735.o(.rodata._ZL6circle)
    [Anonymous Symbol]                       0x0001425c   Section        0  st7735.o(.rodata._ZL6circle)
    colors                                   0x00014298   Data          80  module.o(.rodata._ZL6colors)
    [Anonymous Symbol]                       0x00014298   Section        0  module.o(.rodata._ZL6colors)
    image1                                   0x000142e8   Data         338  module.o(.rodata._ZL6image1)
    [Anonymous Symbol]                       0x000142e8   Section        0  module.o(.rodata._ZL6image1)
    image2                                   0x0001443a   Data         338  module.o(.rodata._ZL6image2)
    [Anonymous Symbol]                       0x0001443a   Section        0  module.o(.rodata._ZL6image2)
    image3                                   0x0001458c   Data         338  module.o(.rodata._ZL6image3)
    [Anonymous Symbol]                       0x0001458c   Section        0  module.o(.rodata._ZL6image3)
    image4                                   0x000146de   Data         338  module.o(.rodata._ZL6image4)
    [Anonymous Symbol]                       0x000146de   Section        0  module.o(.rodata._ZL6image4)
    image5                                   0x00014830   Data         338  module.o(.rodata._ZL6image5)
    [Anonymous Symbol]                       0x00014830   Section        0  module.o(.rodata._ZL6image5)
    image6                                   0x00014982   Data         338  module.o(.rodata._ZL6image6)
    [Anonymous Symbol]                       0x00014982   Section        0  module.o(.rodata._ZL6image6)
    image7                                   0x00014ad4   Data         338  module.o(.rodata._ZL6image7)
    [Anonymous Symbol]                       0x00014ad4   Section        0  module.o(.rodata._ZL6image7)
    image8                                   0x00014c26   Data         338  module.o(.rodata._ZL6image8)
    [Anonymous Symbol]                       0x00014c26   Section        0  module.o(.rodata._ZL6image8)
    image9                                   0x00014d78   Data         338  module.o(.rodata._ZL6image9)
    [Anonymous Symbol]                       0x00014d78   Section        0  module.o(.rodata._ZL6image9)
    red_no                                   0x00014eca   Data        3200  module.o(.rodata._ZL6red_no)
    [Anonymous Symbol]                       0x00014eca   Section        0  module.o(.rodata._ZL6red_no)
    strike                                   0x00015b4a   Data         140  module.o(.rodata._ZL6strike)
    [Anonymous Symbol]                       0x00015b4a   Section        0  module.o(.rodata._ZL6strike)
    xCords                                   0x00015bd8   Data          52  module.o(.rodata._ZL6xCords)
    [Anonymous Symbol]                       0x00015bd8   Section        0  module.o(.rodata._ZL6xCords)
    yCords                                   0x00015c0c   Data          52  module.o(.rodata._ZL6yCords)
    [Anonymous Symbol]                       0x00015c0c   Section        0  module.o(.rodata._ZL6yCords)
    blue_no                                  0x00015c40   Data        3200  module.o(.rodata._ZL7blue_no)
    [Anonymous Symbol]                       0x00015c40   Section        0  module.o(.rodata._ZL7blue_no)
    image10                                  0x000168c0   Data         338  module.o(.rodata._ZL7image10)
    [Anonymous Symbol]                       0x000168c0   Section        0  module.o(.rodata._ZL7image10)
    image11                                  0x00016a12   Data         338  module.o(.rodata._ZL7image11)
    [Anonymous Symbol]                       0x00016a12   Section        0  module.o(.rodata._ZL7image11)
    image12                                  0x00016b64   Data         338  module.o(.rodata._ZL7image12)
    [Anonymous Symbol]                       0x00016b64   Section        0  module.o(.rodata._ZL7image12)
    image13                                  0x00016cb6   Data         338  module.o(.rodata._ZL7image13)
    [Anonymous Symbol]                       0x00016cb6   Section        0  module.o(.rodata._ZL7image13)
    image14                                  0x00016e08   Data         338  module.o(.rodata._ZL7image14)
    [Anonymous Symbol]                       0x00016e08   Section        0  module.o(.rodata._ZL7image14)
    image15                                  0x00016f5a   Data         338  module.o(.rodata._ZL7image15)
    [Anonymous Symbol]                       0x00016f5a   Section        0  module.o(.rodata._ZL7image15)
    image16                                  0x000170ac   Data         338  module.o(.rodata._ZL7image16)
    [Anonymous Symbol]                       0x000170ac   Section        0  module.o(.rodata._ZL7image16)
    image17                                  0x000171fe   Data         338  module.o(.rodata._ZL7image17)
    [Anonymous Symbol]                       0x000171fe   Section        0  module.o(.rodata._ZL7image17)
    image18                                  0x00017350   Data         338  module.o(.rodata._ZL7image18)
    [Anonymous Symbol]                       0x00017350   Section        0  module.o(.rodata._ZL7image18)
    image19                                  0x000174a2   Data         338  module.o(.rodata._ZL7image19)
    [Anonymous Symbol]                       0x000174a2   Section        0  module.o(.rodata._ZL7image19)
    image20                                  0x000175f4   Data         338  module.o(.rodata._ZL7image20)
    [Anonymous Symbol]                       0x000175f4   Section        0  module.o(.rodata._ZL7image20)
    image21                                  0x00017746   Data         338  module.o(.rodata._ZL7image21)
    [Anonymous Symbol]                       0x00017746   Section        0  module.o(.rodata._ZL7image21)
    image22                                  0x00017898   Data         338  module.o(.rodata._ZL7image22)
    [Anonymous Symbol]                       0x00017898   Section        0  module.o(.rodata._ZL7image22)
    image23                                  0x000179ea   Data         338  module.o(.rodata._ZL7image23)
    [Anonymous Symbol]                       0x000179ea   Section        0  module.o(.rodata._ZL7image23)
    image24                                  0x00017b3c   Data         338  module.o(.rodata._ZL7image24)
    [Anonymous Symbol]                       0x00017b3c   Section        0  module.o(.rodata._ZL7image24)
    image25                                  0x00017c8e   Data         338  module.o(.rodata._ZL7image25)
    [Anonymous Symbol]                       0x00017c8e   Section        0  module.o(.rodata._ZL7image25)
    image26                                  0x00017de0   Data         338  module.o(.rodata._ZL7image26)
    [Anonymous Symbol]                       0x00017de0   Section        0  module.o(.rodata._ZL7image26)
    image27                                  0x00017f32   Data         338  module.o(.rodata._ZL7image27)
    [Anonymous Symbol]                       0x00017f32   Section        0  module.o(.rodata._ZL7image27)
    image28                                  0x00018084   Data         338  module.o(.rodata._ZL7image28)
    [Anonymous Symbol]                       0x00018084   Section        0  module.o(.rodata._ZL7image28)
    phrases                                  0x000181d8   Data          80  module.o(.rodata._ZL7phrases)
    [Anonymous Symbol]                       0x000181d8   Section        0  module.o(.rodata._ZL7phrases)
    Rcmd2red                                 0x00018228   Data          13  st7735.o(.rodata._ZL8Rcmd2red)
    [Anonymous Symbol]                       0x00018228   Section        0  st7735.o(.rodata._ZL8Rcmd2red)
    complete                                 0x00018235   Data       16538  sound.o(.rodata._ZL8complete)
    [Anonymous Symbol]                       0x00018235   Section        0  sound.o(.rodata._ZL8complete)
    red_hold                                 0x0001c2d0   Data        3200  module.o(.rodata._ZL8red_hold)
    [Anonymous Symbol]                       0x0001c2d0   Section        0  module.o(.rodata._ZL8red_hold)
    red_stop                                 0x0001cf50   Data        3200  module.o(.rodata._ZL8red_stop)
    [Anonymous Symbol]                       0x0001cf50   Section        0  module.o(.rodata._ZL8red_stop)
    white_no                                 0x0001dbd0   Data        3200  module.o(.rodata._ZL8white_no)
    [Anonymous Symbol]                       0x0001dbd0   Section        0  module.o(.rodata._ZL8white_no)
    blue_hold                                0x0001e850   Data        3200  module.o(.rodata._ZL9blue_hold)
    [Anonymous Symbol]                       0x0001e850   Section        0  module.o(.rodata._ZL9blue_hold)
    blue_stop                                0x0001f4d0   Data        3200  module.o(.rodata._ZL9blue_stop)
    [Anonymous Symbol]                       0x0001f4d0   Section        0  module.o(.rodata._ZL9blue_stop)
    red_abort                                0x00020150   Data        3200  module.o(.rodata._ZL9red_abort)
    [Anonymous Symbol]                       0x00020150   Section        0  module.o(.rodata._ZL9red_abort)
    red_press                                0x00020dd0   Data        3200  module.o(.rodata._ZL9red_press)
    [Anonymous Symbol]                       0x00020dd0   Section        0  module.o(.rodata._ZL9red_press)
    yellow_no                                0x00021a50   Data        3200  module.o(.rodata._ZL9yellow_no)
    [Anonymous Symbol]                       0x00021a50   Section        0  module.o(.rodata._ZL9yellow_no)
    .L.str.5                                 0x0002290c   Data          10  main.o(.rodata.str1.1)
    [Anonymous Symbol]                       0x0002290c   Section        0  main.o(.rodata.str1.1)
    .L.str.7                                 0x00022916   Data           8  main.o(.rodata.str1.1)
    .L.str.9                                 0x0002291e   Data          11  main.o(.rodata.str1.1)
    .L.str.11                                0x00022929   Data           9  main.o(.rodata.str1.1)
    .L.str.8                                 0x00022932   Data          16  main.o(.rodata.str1.1)
    .L.str.10                                0x00022942   Data          10  main.o(.rodata.str1.1)
    .L.str.4                                 0x0002294c   Data          12  main.o(.rodata.str1.1)
    .L.str.6                                 0x00022958   Data          16  main.o(.rodata.str1.1)
    .L.str                                   0x00022968   Data           8  main.o(.rodata.str1.1)
    .L.str.3                                 0x00022970   Data           8  main.o(.rodata.str1.1)
    .L.str.1                                 0x00022978   Data          22  st7735.o(.rodata.str1.1)
    [Anonymous Symbol]                       0x00022978   Section        0  st7735.o(.rodata.str1.1)
    .L.str                                   0x0002298e   Data           6  st7735.o(.rodata.str1.1)
    [Anonymous Symbol]                       0x00022994   Section        0  module.o(.rodata.str1.1)
    .L.str.20                                0x00022aa1   Data           4  module.o(.rodata.str1.1)
    .init_array                              0x00022ad8   Section        0  init_aeabi.o(.init_array)
    _width                                   0x20000006   Data           2  st7735.o(.data._ZL6_width)
    [Anonymous Symbol]                       0x20000006   Section        0  st7735.o(.data._ZL6_width)
    _height                                  0x20000008   Data           2  st7735.o(.data._ZL7_height)
    [Anonymous Symbol]                       0x20000008   Section        0  st7735.o(.data._ZL7_height)
    .bss                                     0x20000160   Section       96  libspace.o(.bss)
    M                                        0x20000280   Data           4  random.o(.bss._ZL1M)
    [Anonymous Symbol]                       0x20000280   Section        0  random.o(.bss._ZL1M)
    ColStart                                 0x20000284   Data           1  st7735.o(.bss._ZL8ColStart)
    [Anonymous Symbol]                       0x20000284   Section        0  st7735.o(.bss._ZL8ColStart)
    Rotation                                 0x20000285   Data           1  st7735.o(.bss._ZL8Rotation)
    [Anonymous Symbol]                       0x20000285   Section        0  st7735.o(.bss._ZL8Rotation)
    RowStart                                 0x20000286   Data           1  st7735.o(.bss._ZL8RowStart)
    [Anonymous Symbol]                       0x20000286   Section        0  st7735.o(.bss._ZL8RowStart)
    TabColor                                 0x20000287   Data           1  st7735.o(.bss._ZL8TabColor)
    [Anonymous Symbol]                       0x20000287   Section        0  st7735.o(.bss._ZL8TabColor)
    Heap_Mem                                 0x200007e0   Data        1024  startup_tm4c123.o(HEAP)
    HEAP                                     0x200007e0   Section     1024  startup_tm4c123.o(HEAP)
    Stack_Mem                                0x20000be0   Data        1024  startup_tm4c123.o(STACK)
    STACK                                    0x20000be0   Section     1024  startup_tm4c123.o(STACK)
    __initial_sp                             0x20000fe0   Data           0  startup_tm4c123.o(STACK)

    Global Symbols

    Symbol Name                              Value     Ov Type        Size  Object(Section)

    BuildAttributes$$THM_ISAv4$E$P$D$K$B$S$7EM$PE$A:L22UL41UL21$X:L11$S22US41US21$IEEE1$IW$~IW$USESV6$~STKCKD$USESV7$~SHL$OTIME$ROPI$EBA8$UX$STANDARDLIB$REQ8$PRES8$EABIv2 0x00000000   Number         0  anon$$obj.o ABSOLUTE
    __Vectors                                0x00000000   Data           4  startup_tm4c123.o(RESET)
    __fp_init_empty                          0x00000000   Number         0  fpinit_empty.o ABSOLUTE
    __ARM_exceptions_init                     - Undefined Weak Reference
    __alloca_initialize                       - Undefined Weak Reference
    __arm_preinit_                            - Undefined Weak Reference
    __arm_relocate_pie_                       - Undefined Weak Reference
    __cxa_finalize                            - Undefined Weak Reference
    __decompress                              - Undefined Weak Reference
    __rt_locale                               - Undefined Weak Reference
    __sigvec_lookup                           - Undefined Weak Reference
    __user_heap_extent                        - Undefined Weak Reference
    _atexit_init                              - Undefined Weak Reference
    _call_atexit_fns                          - Undefined Weak Reference
    _clock_init                               - Undefined Weak Reference
    _fp_trap_init                             - Undefined Weak Reference
    _fp_trap_shutdown                         - Undefined Weak Reference
    _get_lc_collate                           - Undefined Weak Reference
    _get_lc_ctype                             - Undefined Weak Reference
    _get_lc_monetary                          - Undefined Weak Reference
    _get_lc_numeric                           - Undefined Weak Reference
    _get_lc_time                              - Undefined Weak Reference
    _getenv_init                              - Undefined Weak Reference
    _handle_redirection                       - Undefined Weak Reference
    _initio                                   - Undefined Weak Reference
    _mutex_acquire                            - Undefined Weak Reference
    _mutex_free                               - Undefined Weak Reference
    _mutex_release                            - Undefined Weak Reference
    _rand_init                                - Undefined Weak Reference
    _signal_finish                            - Undefined Weak Reference
    _signal_init                              - Undefined Weak Reference
    _terminateio                              - Undefined Weak Reference
    __Vectors_End                            0x0000026c   Data           0  startup_tm4c123.o(RESET)
    __Vectors_Size                           0x0000026c   Number         0  startup_tm4c123.o ABSOLUTE
    __main                                   0x0000026d   Thumb Code     8  __main.o(!!!main)
    __scatterload                            0x00000275   Thumb Code     0  __scatter.o(!!!scatter)
    __scatterload_rt2                        0x00000275   Thumb Code    44  __scatter.o(!!!scatter)
    __scatterload_rt2_thumb_only             0x00000275   Thumb Code     0  __scatter.o(!!!scatter)
    __scatterload_null                       0x00000283   Thumb Code     0  __scatter.o(!!!scatter)
    __scatterload_copy                       0x000002a9   Thumb Code    26  __scatter_copy.o(!!handler_copy)
    __scatterload_zeroinit                   0x000002c5   Thumb Code    28  __scatter_zi.o(!!handler_zi)
    __rt_lib_init                            0x000002e1   Thumb Code     0  libinit.o(.ARM.Collect$$libinit$$00000000)
    __rt_lib_init_fp_1                       0x000002e3   Thumb Code     0  libinit2.o(.ARM.Collect$$libinit$$00000002)
    __rt_lib_init_heap_2                     0x000002e3   Thumb Code     0  libinit2.o(.ARM.Collect$$libinit$$00000007)
    __rt_lib_init_preinit_1                  0x000002e3   Thumb Code     0  libinit2.o(.ARM.Collect$$libinit$$00000006)
    __rt_lib_init_relocate_pie_1             0x000002e3   Thumb Code     0  libinit2.o(.ARM.Collect$$libinit$$00000004)
    __rt_lib_init_alloca_1                   0x000002eb   Thumb Code     0  libinit2.o(.ARM.Collect$$libinit$$00000030)
    __rt_lib_init_argv_1                     0x000002eb   Thumb Code     0  libinit2.o(.ARM.Collect$$libinit$$0000002E)
    __rt_lib_init_atexit_1                   0x000002eb   Thumb Code     0  libinit2.o(.ARM.Collect$$libinit$$0000001D)
    __rt_lib_init_clock_1                    0x000002eb   Thumb Code     0  libinit2.o(.ARM.Collect$$libinit$$00000023)
    __rt_lib_init_cpp_2                      0x000002eb   Thumb Code     0  libinit2.o(.ARM.Collect$$libinit$$00000033)
    __rt_lib_init_exceptions_1               0x000002eb   Thumb Code     0  libinit2.o(.ARM.Collect$$libinit$$00000032)
    __rt_lib_init_fp_trap_1                  0x000002eb   Thumb Code     0  libinit2.o(.ARM.Collect$$libinit$$00000021)
    __rt_lib_init_getenv_1                   0x000002eb   Thumb Code     0  libinit2.o(.ARM.Collect$$libinit$$00000025)
    __rt_lib_init_heap_1                     0x000002eb   Thumb Code     0  libinit2.o(.ARM.Collect$$libinit$$0000000C)
    __rt_lib_init_lc_collate_1               0x000002eb   Thumb Code     0  libinit2.o(.ARM.Collect$$libinit$$00000013)
    __rt_lib_init_lc_ctype_1                 0x000002eb   Thumb Code     0  libinit2.o(.ARM.Collect$$libinit$$00000015)
    __rt_lib_init_lc_monetary_1              0x000002eb   Thumb Code     0  libinit2.o(.ARM.Collect$$libinit$$00000017)
    __rt_lib_init_lc_numeric_1               0x000002eb   Thumb Code     0  libinit2.o(.ARM.Collect$$libinit$$00000019)
    __rt_lib_init_lc_time_1                  0x000002eb   Thumb Code     0  libinit2.o(.ARM.Collect$$libinit$$0000001B)
    __rt_lib_init_rand_1                     0x000002eb   Thumb Code     0  libinit2.o(.ARM.Collect$$libinit$$00000010)
    __rt_lib_init_signal_1                   0x000002eb   Thumb Code     0  libinit2.o(.ARM.Collect$$libinit$$0000001F)
    __rt_lib_init_stdio_1                    0x000002eb   Thumb Code     0  libinit2.o(.ARM.Collect$$libinit$$00000027)
    __rt_lib_init_user_alloc_1               0x000002eb   Thumb Code     0  libinit2.o(.ARM.Collect$$libinit$$0000000E)
    __rt_lib_init_cpp_1                      0x000002ef   Thumb Code     0  libinit2.o(.ARM.Collect$$libinit$$00000034)
    __rt_lib_init_return                     0x000002ef   Thumb Code     0  libinit2.o(.ARM.Collect$$libinit$$00000035)
    __rt_lib_shutdown                        0x000002f1   Thumb Code     0  libshutdown.o(.ARM.Collect$$libshutdown$$00000000)
    __rt_lib_shutdown_cpp_1                  0x000002f3   Thumb Code     0  libshutdown2.o(.ARM.Collect$$libshutdown$$00000002)
    __rt_lib_shutdown_fp_trap_1              0x000002f3   Thumb Code     0  libshutdown2.o(.ARM.Collect$$libshutdown$$00000007)
    __rt_lib_shutdown_heap_1                 0x000002f3   Thumb Code     0  libshutdown2.o(.ARM.Collect$$libshutdown$$0000000F)
    __rt_lib_shutdown_return                 0x000002f3   Thumb Code     0  libshutdown2.o(.ARM.Collect$$libshutdown$$00000010)
    __rt_lib_shutdown_signal_1               0x000002f3   Thumb Code     0  libshutdown2.o(.ARM.Collect$$libshutdown$$0000000A)
    __rt_lib_shutdown_stdio_1                0x000002f3   Thumb Code     0  libshutdown2.o(.ARM.Collect$$libshutdown$$00000004)
    __rt_lib_shutdown_user_alloc_1           0x000002f3   Thumb Code     0  libshutdown2.o(.ARM.Collect$$libshutdown$$0000000C)
    __rt_entry                               0x000002f5   Thumb Code     0  __rtentry.o(.ARM.Collect$$rtentry$$00000000)
    __rt_entry_presh_1                       0x000002f5   Thumb Code     0  __rtentry2.o(.ARM.Collect$$rtentry$$00000002)
    __rt_entry_sh                            0x000002f5   Thumb Code     0  __rtentry4.o(.ARM.Collect$$rtentry$$00000004)
    __rt_entry_li                            0x000002fb   Thumb Code     0  __rtentry2.o(.ARM.Collect$$rtentry$$0000000A)
    __rt_entry_postsh_1                      0x000002fb   Thumb Code     0  __rtentry2.o(.ARM.Collect$$rtentry$$00000009)
    __rt_entry_main                          0x000002ff   Thumb Code     0  __rtentry2.o(.ARM.Collect$$rtentry$$0000000D)
    __rt_entry_postli_1                      0x000002ff   Thumb Code     0  __rtentry2.o(.ARM.Collect$$rtentry$$0000000C)
    __rt_exit                                0x00000307   Thumb Code     0  rtexit.o(.ARM.Collect$$rtexit$$00000000)
    __rt_exit_ls                             0x00000309   Thumb Code     0  rtexit2.o(.ARM.Collect$$rtexit$$00000003)
    __rt_exit_prels_1                        0x00000309   Thumb Code     0  rtexit2.o(.ARM.Collect$$rtexit$$00000002)
    __rt_exit_exit                           0x0000030d   Thumb Code     0  rtexit2.o(.ARM.Collect$$rtexit$$00000004)
    Reset_Handler                            0x00000315   Thumb Code     4  startup_tm4c123.o(.text)
    DisableInterrupts                        0x00000319   Thumb Code     4  startup_tm4c123.o(.text)
    EnableInterrupts                         0x0000031d   Thumb Code     4  startup_tm4c123.o(.text)
    StartCritical                            0x00000321   Thumb Code     8  startup_tm4c123.o(.text)
    EndCritical                              0x00000329   Thumb Code     6  startup_tm4c123.o(.text)
    WaitForInterrupt                         0x0000032f   Thumb Code     4  startup_tm4c123.o(.text)
    NMI_Handler                              0x00000333   Thumb Code     2  startup_tm4c123.o(.text)
    HardFault_Handler                        0x00000335   Thumb Code     2  startup_tm4c123.o(.text)
    MemManage_Handler                        0x00000337   Thumb Code     2  startup_tm4c123.o(.text)
    BusFault_Handler                         0x00000339   Thumb Code     2  startup_tm4c123.o(.text)
    UsageFault_Handler                       0x0000033b   Thumb Code     2  startup_tm4c123.o(.text)
    SVC_Handler                              0x0000033d   Thumb Code     2  startup_tm4c123.o(.text)
    DebugMon_Handler                         0x0000033f   Thumb Code     2  startup_tm4c123.o(.text)
    PendSV_Handler                           0x00000341   Thumb Code     2  startup_tm4c123.o(.text)
    GPIOA_Handler                            0x00000345   Thumb Code     2  startup_tm4c123.o(.text)
    GPIOB_Handler                            0x00000347   Thumb Code     2  startup_tm4c123.o(.text)
    GPIOC_Handler                            0x00000349   Thumb Code     2  startup_tm4c123.o(.text)
    GPIOD_Handler                            0x0000034b   Thumb Code     2  startup_tm4c123.o(.text)
    GPIOE_Handler                            0x0000034d   Thumb Code     2  startup_tm4c123.o(.text)
    UART0_Handler                            0x0000034f   Thumb Code     2  startup_tm4c123.o(.text)
    SSI0_Handler                             0x00000353   Thumb Code     2  startup_tm4c123.o(.text)
    I2C0_Handler                             0x00000355   Thumb Code     2  startup_tm4c123.o(.text)
    PMW0_FAULT_Handler                       0x00000357   Thumb Code     2  startup_tm4c123.o(.text)
    PWM0_0_Handler                           0x00000359   Thumb Code     2  startup_tm4c123.o(.text)
    PWM0_1_Handler                           0x0000035b   Thumb Code     2  startup_tm4c123.o(.text)
    PWM0_2_Handler                           0x0000035d   Thumb Code     2  startup_tm4c123.o(.text)
    QEI0_Handler                             0x0000035f   Thumb Code     2  startup_tm4c123.o(.text)
    ADC0SS0_Handler                          0x00000361   Thumb Code     2  startup_tm4c123.o(.text)
    ADC0SS1_Handler                          0x00000363   Thumb Code     2  startup_tm4c123.o(.text)
    ADC0SS2_Handler                          0x00000365   Thumb Code     2  startup_tm4c123.o(.text)
    ADC0SS3_Handler                          0x00000367   Thumb Code     2  startup_tm4c123.o(.text)
    WDT0_Handler                             0x00000369   Thumb Code     2  startup_tm4c123.o(.text)
    TIMER0B_Handler                          0x0000036d   Thumb Code     2  startup_tm4c123.o(.text)
    TIMER1B_Handler                          0x00000371   Thumb Code     2  startup_tm4c123.o(.text)
    TIMER2A_Handler                          0x00000373   Thumb Code     2  startup_tm4c123.o(.text)
    TIMER2B_Handler                          0x00000375   Thumb Code     2  startup_tm4c123.o(.text)
    COMP0_Handler                            0x00000377   Thumb Code     2  startup_tm4c123.o(.text)
    COMP1_Handler                            0x00000379   Thumb Code     2  startup_tm4c123.o(.text)
    COMP2_Handler                            0x0000037b   Thumb Code     2  startup_tm4c123.o(.text)
    SYSCTL_Handler                           0x0000037d   Thumb Code     2  startup_tm4c123.o(.text)
    FLASH_Handler                            0x0000037f   Thumb Code     2  startup_tm4c123.o(.text)
    GPIOF_Handler                            0x00000381   Thumb Code     2  startup_tm4c123.o(.text)
    GPIOG_Handler                            0x00000383   Thumb Code     2  startup_tm4c123.o(.text)
    GPIOH_Handler                            0x00000385   Thumb Code     2  startup_tm4c123.o(.text)
    UART2_Handler                            0x00000387   Thumb Code     2  startup_tm4c123.o(.text)
    SSI1_Handler                             0x00000389   Thumb Code     2  startup_tm4c123.o(.text)
    TIMER3B_Handler                          0x0000038d   Thumb Code     2  startup_tm4c123.o(.text)
    I2C1_Handler                             0x0000038f   Thumb Code     2  startup_tm4c123.o(.text)
    QEI1_Handler                             0x00000391   Thumb Code     2  startup_tm4c123.o(.text)
    CAN0_Handler                             0x00000393   Thumb Code     2  startup_tm4c123.o(.text)
    CAN1_Handler                             0x00000395   Thumb Code     2  startup_tm4c123.o(.text)
    CAN2_Handler                             0x00000397   Thumb Code     2  startup_tm4c123.o(.text)
    HIB_Handler                              0x00000399   Thumb Code     2  startup_tm4c123.o(.text)
    USB0_Handler                             0x0000039b   Thumb Code     2  startup_tm4c123.o(.text)
    PWM0_3_Handler                           0x0000039d   Thumb Code     2  startup_tm4c123.o(.text)
    UDMA_Handler                             0x0000039f   Thumb Code     2  startup_tm4c123.o(.text)
    UDMAERR_Handler                          0x000003a1   Thumb Code     2  startup_tm4c123.o(.text)
    ADC1SS0_Handler                          0x000003a3   Thumb Code     2  startup_tm4c123.o(.text)
    ADC1SS1_Handler                          0x000003a5   Thumb Code     2  startup_tm4c123.o(.text)
    ADC1SS2_Handler                          0x000003a7   Thumb Code     2  startup_tm4c123.o(.text)
    ADC1SS3_Handler                          0x000003a9   Thumb Code     2  startup_tm4c123.o(.text)
    GPIOJ_Handler                            0x000003ab   Thumb Code     2  startup_tm4c123.o(.text)
    GPIOK_Handler                            0x000003ad   Thumb Code     2  startup_tm4c123.o(.text)
    GPIOL_Handler                            0x000003af   Thumb Code     2  startup_tm4c123.o(.text)
    SSI2_Handler                             0x000003b1   Thumb Code     2  startup_tm4c123.o(.text)
    SSI3_Handler                             0x000003b3   Thumb Code     2  startup_tm4c123.o(.text)
    UART3_Handler                            0x000003b5   Thumb Code     2  startup_tm4c123.o(.text)
    UART4_Handler                            0x000003b7   Thumb Code     2  startup_tm4c123.o(.text)
    UART5_Handler                            0x000003b9   Thumb Code     2  startup_tm4c123.o(.text)
    UART6_Handler                            0x000003bb   Thumb Code     2  startup_tm4c123.o(.text)
    UART7_Handler                            0x000003bd   Thumb Code     2  startup_tm4c123.o(.text)
    I2C2_Handler                             0x000003bf   Thumb Code     2  startup_tm4c123.o(.text)
    I2C3_Handler                             0x000003c1   Thumb Code     2  startup_tm4c123.o(.text)
    TIMER4A_Handler                          0x000003c3   Thumb Code     2  startup_tm4c123.o(.text)
    TIMER4B_Handler                          0x000003c5   Thumb Code     2  startup_tm4c123.o(.text)
    TIMER5B_Handler                          0x000003c9   Thumb Code     2  startup_tm4c123.o(.text)
    WTIMER0A_Handler                         0x000003cb   Thumb Code     2  startup_tm4c123.o(.text)
    WTIMER0B_Handler                         0x000003cd   Thumb Code     2  startup_tm4c123.o(.text)
    WTIMER1A_Handler                         0x000003cf   Thumb Code     2  startup_tm4c123.o(.text)
    WTIMER1B_Handler                         0x000003d1   Thumb Code     2  startup_tm4c123.o(.text)
    WTIMER2A_Handler                         0x000003d3   Thumb Code     2  startup_tm4c123.o(.text)
    WTIMER2B_Handler                         0x000003d5   Thumb Code     2  startup_tm4c123.o(.text)
    WTIMER3A_Handler                         0x000003d7   Thumb Code     2  startup_tm4c123.o(.text)
    WTIMER3B_Handler                         0x000003d9   Thumb Code     2  startup_tm4c123.o(.text)
    WTIMER4A_Handler                         0x000003db   Thumb Code     2  startup_tm4c123.o(.text)
    WTIMER4B_Handler                         0x000003dd   Thumb Code     2  startup_tm4c123.o(.text)
    WTIMER5A_Handler                         0x000003df   Thumb Code     2  startup_tm4c123.o(.text)
    WTIMER5B_Handler                         0x000003e1   Thumb Code     2  startup_tm4c123.o(.text)
    FPU_Handler                              0x000003e3   Thumb Code     2  startup_tm4c123.o(.text)
    I2C4_Handler                             0x000003e5   Thumb Code     2  startup_tm4c123.o(.text)
    I2C5_Handler                             0x000003e7   Thumb Code     2  startup_tm4c123.o(.text)
    GPIOM_Handler                            0x000003e9   Thumb Code     2  startup_tm4c123.o(.text)
    GPION_Handler                            0x000003eb   Thumb Code     2  startup_tm4c123.o(.text)
    QEI2_Handler                             0x000003ed   Thumb Code     2  startup_tm4c123.o(.text)
    GPIOP0_Handler                           0x000003ef   Thumb Code     2  startup_tm4c123.o(.text)
    GPIOP1_Handler                           0x000003f1   Thumb Code     2  startup_tm4c123.o(.text)
    GPIOP2_Handler                           0x000003f3   Thumb Code     2  startup_tm4c123.o(.text)
    GPIOP3_Handler                           0x000003f5   Thumb Code     2  startup_tm4c123.o(.text)
    GPIOP4_Handler                           0x000003f7   Thumb Code     2  startup_tm4c123.o(.text)
    GPIOP5_Handler                           0x000003f9   Thumb Code     2  startup_tm4c123.o(.text)
    GPIOP6_Handler                           0x000003fb   Thumb Code     2  startup_tm4c123.o(.text)
    GPIOP7_Handler                           0x000003fd   Thumb Code     2  startup_tm4c123.o(.text)
    GPIOQ0_Handler                           0x000003ff   Thumb Code     2  startup_tm4c123.o(.text)
    GPIOQ1_Handler                           0x00000401   Thumb Code     2  startup_tm4c123.o(.text)
    GPIOQ2_Handler                           0x00000403   Thumb Code     2  startup_tm4c123.o(.text)
    GPIOQ3_Handler                           0x00000405   Thumb Code     2  startup_tm4c123.o(.text)
    GPIOQ4_Handler                           0x00000407   Thumb Code     2  startup_tm4c123.o(.text)
    GPIOQ5_Handler                           0x00000409   Thumb Code     2  startup_tm4c123.o(.text)
    GPIOQ6_Handler                           0x0000040b   Thumb Code     2  startup_tm4c123.o(.text)
    GPIOQ7_Handler                           0x0000040d   Thumb Code     2  startup_tm4c123.o(.text)
    GPIOR_Handler                            0x0000040f   Thumb Code     2  startup_tm4c123.o(.text)
    GPIOS_Handler                            0x00000411   Thumb Code     2  startup_tm4c123.o(.text)
    PMW1_0_Handler                           0x00000413   Thumb Code     2  startup_tm4c123.o(.text)
    PWM1_1_Handler                           0x00000415   Thumb Code     2  startup_tm4c123.o(.text)
    PWM1_2_Handler                           0x00000417   Thumb Code     2  startup_tm4c123.o(.text)
    PWM1_3_Handler                           0x00000419   Thumb Code     2  startup_tm4c123.o(.text)
    PWM1_FAULT_Handler                       0x0000041b   Thumb Code     2  startup_tm4c123.o(.text)
    __user_initial_stackheap                 0x0000041d   Thumb Code     0  startup_tm4c123.o(.text)
    Bomb_Init(int*)                          0x00000629   Thumb Code   700  main.o(.text)
    abs(int)                                 0x000008e5   Thumb Code    32  main.o(.text)
    convertTime(int)                         0x00000905   Thumb Code   136  main.o(.text)
    Timer3A_Init(void (*)(), unsigned int)   0x0000098d   Thumb Code   152  main.o(.text)
    Timer3A_Stop()                           0x00000a25   Thumb Code    26  main.o(.text)
    TIMER3A_Handler                          0x00000a41   Thumb Code    28  main.o(.text)
    task3()                                  0x00000a5d   Thumb Code   282  main.o(.text)
    PortF_Init()                             0x00000b79   Thumb Code   140  main.o(.text)
    SysTick_Init(unsigned int)               0x00000c05   Thumb Code    66  main.o(.text)
    SysTick_Handler                          0x00000c49   Thumb Code    36  main.o(.text)
    main                                     0x00000c6d   Thumb Code   454  main.o(.text)
    DAC_Init()                               0x00000e45   Thumb Code    86  dac.o(.text)
    DAC_Out(unsigned int)                    0x00000e9d   Thumb Code    20  dac.o(.text)
    PLL_Init(unsigned int)                   0x00000eb1   Thumb Code   138  pll.o(.text)
    Random_Init(unsigned int)                0x00000f3d   Thumb Code    20  random.o(.text)
    Random32()                               0x00000f51   Thumb Code    36  random.o(.text)
    Random()                                 0x00000f75   Thumb Code    36  random.o(.text)
    Delay1ms(unsigned int)                   0x00000f99   Thumb Code    46  st7735.o(.text)
    ST7735_InitB()                           0x00000fc9   Thumb Code    50  st7735.o(.text)
    ST7735_SetCursor(unsigned int, unsigned int) 0x000011a1   Thumb Code    54  st7735.o(.text)
    ST7735_FillScreen(unsigned short)        0x000011d9   Thumb Code    52  st7735.o(.text)
    ST7735_InitR(initRFlags)                 0x0000120d   Thumb Code   166  st7735.o(.text)
    ST7735_DrawPixel(short, short, unsigned short) 0x000013f9   Thumb Code   116  st7735.o(.text)
    ST7735_DrawFastVLine(short, short, short, unsigned short) 0x00001541   Thumb Code   204  st7735.o(.text)
    ST7735_DrawFastHLine(short, short, short, unsigned short) 0x0000160d   Thumb Code   204  st7735.o(.text)
    ST7735_FillRect(short, short, short, short, unsigned short) 0x000016d9   Thumb Code   324  st7735.o(.text)
    ST7735_DrawSmallCircle(short, short, unsigned short) 0x0000181d   Thumb Code   218  st7735.o(.text)
    ST7735_DrawCircle(short, short, unsigned short) 0x000018f9   Thumb Code   218  st7735.o(.text)
    ST7735_Color565(unsigned char, unsigned char, unsigned char) 0x000019d5   Thumb Code    48  st7735.o(.text)
    ST7735_SwapColor(unsigned short)         0x00001a05   Thumb Code    28  st7735.o(.text)
    ST7735_DrawBitmap(short, short, unsigned short const*, short, short) 0x00001a21   Thumb Code   594  st7735.o(.text)
    ST7735_DrawCharS(short, short, char, short, short, unsigned char) 0x00001c75   Thumb Code   438  st7735.o(.text)
    ST7735_DrawChar(short, short, char, short, short, unsigned char) 0x00001e2d   Thumb Code   438  st7735.o(.text)
    ST7735_DrawString(unsigned short, unsigned short, char*, short) 0x00001fe5   Thumb Code   154  st7735.o(.text)
    fillmessage(unsigned int)                0x00002081   Thumb Code   112  st7735.o(.text)
    ST7735_OutUDec(unsigned int)             0x000020f1   Thumb Code   166  st7735.o(.text)
    ST7735_OutFix(unsigned int)              0x00002199   Thumb Code   190  st7735.o(.text)
    ST7735_OutString                         0x00002259   Thumb Code    36  st7735.o(.text)
    ST7735_OutChar                           0x0000227d   Thumb Code   270  st7735.o(.text)
    ST7735_SetRotation(unsigned char)        0x0000238d   Thumb Code   294  st7735.o(.text)
    ST7735_InvertDisplay(int)                0x000024b5   Thumb Code    36  st7735.o(.text)
    ST7735_PlotClear(int, int)               0x000024d9   Thumb Code   144  st7735.o(.text)
    ST7735_PlotPoint(int)                    0x00002569   Thumb Code   222  st7735.o(.text)
    ST7735_PlotLine(int)                     0x00002649   Thumb Code   462  st7735.o(.text)
    ST7735_PlotPoints(int, int)              0x00002819   Thumb Code   314  st7735.o(.text)
    ST7735_PlotBar(int)                      0x00002955   Thumb Code   138  st7735.o(.text)
    ST7735_PlotdBfs(int)                     0x000029e1   Thumb Code    96  st7735.o(.text)
    ST7735_PlotNext()                        0x00002a41   Thumb Code    48  st7735.o(.text)
    ST7735_PlotNextErase()                   0x00002a71   Thumb Code    90  st7735.o(.text)
    ST7735_SetTextColor(unsigned short)      0x00002acd   Thumb Code    24  st7735.o(.text)
    Output_Init()                            0x00002ae5   Thumb Code    16  st7735.o(.text)
    Output_Clear()                           0x00002af5   Thumb Code    10  st7735.o(.text)
    Output_Off()                             0x00002b01   Thumb Code     8  st7735.o(.text)
    Output_On()                              0x00002b09   Thumb Code     8  st7735.o(.text)
    Output_Color(unsigned int)               0x00002b11   Thumb Code    18  st7735.o(.text)
    ADC_Init()                               0x00002b25   Thumb Code   250  slidepot.o(.text)
    ADC_In()                                 0x00002c21   Thumb Code    70  slidepot.o(.text)
    SlidePot::SlidePot(unsigned int, unsigned int) 0x00002c69   Thumb Code    22  slidepot.o(.text)
    SlidePot::SlidePot__sub_object(unsigned int, unsigned int) 0x00002c69   Thumb Code    22  slidepot.o(.text)
    SlidePot::Save(unsigned int)             0x00002c81   Thumb Code    34  slidepot.o(.text)
    SlidePot::Convert(unsigned int)          0x00002ca5   Thumb Code    24  slidepot.o(.text)
    SlidePot::Sync()                         0x00002cbd   Thumb Code    30  slidepot.o(.text)
    SlidePot::ADCsample()                    0x00002cdd   Thumb Code    12  slidepot.o(.text)
    SlidePot::Distance()                     0x00002ce9   Thumb Code    12  slidepot.o(.text)
    Timer2A_Init(unsigned int, unsigned int) 0x00002cf5   Thumb Code   136  sound.o(.text)
    Timer2A_Start()                          0x00002d7d   Thumb Code    34  sound.o(.text)
    Wave_Stop()                              0x00002da1   Thumb Code    16  sound.o(.text)
    Wave_Init()                              0x00002db1   Thumb Code    30  sound.o(.text)
    Timer2A_Handler()                        0x00002dd1   Thumb Code    84  sound.o(.text)
    Wave_Start(unsigned char const*, unsigned int) 0x00002e25   Thumb Code    40  sound.o(.text)
    Wave_bExplosion()                        0x00002e4d   Thumb Code    20  sound.o(.text)
    Wave_complete()                          0x00002e61   Thumb Code    20  sound.o(.text)
    abs(unsigned int)                        0x00002e75   Thumb Code    32  timer0.o(.text)
    Timer0_Init(void (*)(), unsigned int)    0x00002e95   Thumb Code   140  timer0.o(.text)
    TIMER0A_Handler                          0x00002f21   Thumb Code    26  timer0.o(.text)
    task0()                                  0x00002f3d   Thumb Code    16  timer0.o(.text)
    Timer1_Init(void (*)(), unsigned int)    0x00002f69   Thumb Code   154  timer1.o(.text)
    TIMER1A_Handler                          0x00003005   Thumb Code    28  timer1.o(.text)
    task1()                                  0x00003021   Thumb Code  2626  timer1.o(.text)
    noneSelected()                           0x00003a65   Thumb Code    74  timer1.o(.text)
    UART_Init()                              0x00003ac9   Thumb Code     2  uart.o(.text)
    UART_InChar()                            0x00003acd   Thumb Code    10  uart.o(.text)
    UART_InStatus()                          0x00003ad9   Thumb Code     4  uart.o(.text)
    UART_OutChar(char)                       0x00003add   Thumb Code    10  uart.o(.text)
    UART1_Handler                            0x00003ae9   Thumb Code     2  uart.o(.text)
    UART_OutString(char*)                    0x00003aed   Thumb Code    36  uart.o(.text)
    UART_OutUDec(unsigned int)               0x00003b11   Thumb Code    72  uart.o(.text)
    UART_InMessage(char*)                    0x00003b59   Thumb Code     8  uart.o(.text)
    Queue::Queue()                           0x00003b69   Thumb Code    10  fifo.o(.text)
    Queue::Queue__sub_object()               0x00003b69   Thumb Code    10  fifo.o(.text)
    Queue::IsEmpty()                         0x00003b75   Thumb Code    10  fifo.o(.text)
    Queue::IsFull()                          0x00003b81   Thumb Code    10  fifo.o(.text)
    Queue::Put(char)                         0x00003b8d   Thumb Code    14  fifo.o(.text)
    Queue::Get(char*)                        0x00003b9d   Thumb Code    12  fifo.o(.text)
    Queue::Print()                           0x00003ba9   Thumb Code     8  fifo.o(.text)
    TExaS_Init()                             0x00003bb1   Thumb Code   150  texas.o(.text)
    UART0_Init()                             0x00003c49   Thumb Code   192  texas.o(.text)
    ADC1_Init()                              0x00003d09   Thumb Code   244  texas.o(.text)
    TIMER5A_Handler                          0x00003dfd   Thumb Code    36  texas.o(.text)
    TExaS_Stop()                             0x00003e21   Thumb Code    28  texas.o(.text)
    drawRect(int, int, int, int, unsigned short) 0x00003e3d   Thumb Code   116  module.o(.text)
    Bomb::Bomb()                             0x00003eb1   Thumb Code    36  module.o(.text)
    Bomb::Bomb__sub_object()                 0x00003eb1   Thumb Code    36  module.o(.text)
    Bomb::Bomb(int*, int)                    0x00003ed5   Thumb Code   100  module.o(.text)
    Bomb::Bomb__sub_object(int*, int)        0x00003ed5   Thumb Code   100  module.o(.text)
    Bomb::returnSide()                       0x00003f39   Thumb Code    12  module.o(.text)
    Bomb::isSolved()                         0x00003f45   Thumb Code    88  module.o(.text)
    Bomb::setSide(int)                       0x00003f9d   Thumb Code    16  module.o(.text)
    Bomb::drawBomb2()                        0x00003fad   Thumb Code    90  module.o(.text)
    Bomb::drawBomb4()                        0x00004009   Thumb Code    90  module.o(.text)
    Bomb::hasExploded()                      0x00004065   Thumb Code    16  module.o(.text)
    Bomb::failure()                          0x00004075   Thumb Code    36  module.o(.text)
    Bomb::instant()                          0x00004099   Thumb Code    14  module.o(.text)
    Bomb::drawSelectorRect(int, int)         0x000040a9   Thumb Code    88  module.o(.text)
    Bomb::drawSelector()                     0x00004101   Thumb Code   116  module.o(.text)
    Bomb::moveSelector(int)                  0x00004175   Thumb Code   282  module.o(.text)
    Bomb::setSelector(int)                   0x00004291   Thumb Code    16  module.o(.text)
    Bomb::addStrikes()                       0x000042a1   Thumb Code    36  module.o(.text)
    Bomb::getStrikes()                       0x000042c5   Thumb Code    12  module.o(.text)
    Bomb::getSelector()                      0x000042d1   Thumb Code    12  module.o(.text)
    Bomb::drawStrike(int)                    0x000042dd   Thumb Code   234  module.o(.text)
    Module::Module()                         0x000043c9   Thumb Code    48  module.o(.text)
    Module::Module__sub_object()             0x000043c9   Thumb Code    48  module.o(.text)
    Module::Module(bool)                     0x000043f9   Thumb Code    60  module.o(.text)
    Module::Module__sub_object(bool)         0x000043f9   Thumb Code    60  module.o(.text)
    Module::Draw(int)                        0x00004435   Thumb Code    20  module.o(.text)
    Module::drawModule(int)                  0x00004449   Thumb Code   308  module.o(.text)
    Module::selectModule()                   0x0000457d   Thumb Code    42  module.o(.text)
    Module::deselectModule()                 0x000045a9   Thumb Code    32  module.o(.text)
    Module::drawEmptyModule(int)             0x000045c9   Thumb Code   122  module.o(.text)
    Module::drawSolved(int)                  0x00004645   Thumb Code   202  module.o(.text)
    Module::outTime(char*)                   0x00004711   Thumb Code    10  module.o(.text)
    Timer::Timer(int)                        0x0000471d   Thumb Code    44  module.o(.text)
    Timer::Timer__sub_object(int)            0x0000471d   Thumb Code    44  module.o(.text)
    Timer::DrawTimerRect(int, int)           0x00004749   Thumb Code    62  module.o(.text)
    Timer::Draw(int)                         0x00004789   Thumb Code   174  module.o(.text)
    Timer::outTime(char*)                    0x00004839   Thumb Code    84  module.o(.text)
    Timer::getloc()                          0x0000488d   Thumb Code    12  module.o(.text)
    Wires::Wires(int)                        0x00004899   Thumb Code   150  module.o(.text)
    Wires::Wires__sub_object(int)            0x00004899   Thumb Code   150  module.o(.text)
    Wires::determineAnswer()                 0x00004931   Thumb Code   636  module.o(.text)
    Wires::Draw(int)                         0x00004bad   Thumb Code   616  module.o(.text)
    Wires::drawCutWire()                     0x00004e15   Thumb Code   130  module.o(.text)
    Wires::drawWSelector()                   0x00004e99   Thumb Code   236  module.o(.text)
    Wires::indexOf(int)                      0x00004f85   Thumb Code    78  module.o(.text)
    Wires::lastIndexOf(int)                  0x00004fd5   Thumb Code    76  module.o(.text)
    Wires::moveSelector(int)                 0x00005021   Thumb Code   248  module.o(.text)
    Wires::getSelector()                     0x00005119   Thumb Code    12  module.o(.text)
    Wires::setSelector(int)                  0x00005125   Thumb Code    16  module.o(.text)
    Wires::check(int)                        0x00005135   Thumb Code    50  module.o(.text)
    Wires::cut()                             0x00005169   Thumb Code   146  module.o(.text)
    Button::Button(int)                      0x000051fd   Thumb Code   116  module.o(.text)
    Button::Button__sub_object(int)          0x000051fd   Thumb Code   116  module.o(.text)
    Button::Draw(int)                        0x00005271   Thumb Code   176  module.o(.text)
    Button::getLocation()                    0x00005321   Thumb Code    12  module.o(.text)
    Button::determineAnswer()                0x0000532d   Thumb Code   206  module.o(.text)
    MorseCode::MorseCode(int)                0x000053fd   Thumb Code   116  module.o(.text)
    MorseCode::MorseCode__sub_object(int)    0x000053fd   Thumb Code   116  module.o(.text)
    MorseCode::Draw(int)                     0x00005471   Thumb Code   134  module.o(.text)
    MorseCode::outFreq()                     0x000054f9   Thumb Code   108  module.o(.text)
    MorseCode::flashLED()                    0x00005565   Thumb Code   112  module.o(.text)
    MorseCode::dot()                         0x000055d5   Thumb Code    54  module.o(.text)
    MorseCode::dash()                        0x0000560d   Thumb Code    54  module.o(.text)
    MorseCode::space()                       0x00005645   Thumb Code    18  module.o(.text)
    MorseCode::getMW()                       0x00005659   Thumb Code    12  module.o(.text)
    MorseCode::setFreq(int)                  0x00005665   Thumb Code    16  module.o(.text)
    MorseCode::check()                       0x00005675   Thumb Code   120  module.o(.text)
    Math::Math(int)                          0x000060a9   Thumb Code   226  module.o(.text)
    Math::Math__sub_object(int)              0x000060a9   Thumb Code   226  module.o(.text)
    Math::determineAnswer()                  0x0000618d   Thumb Code   794  module.o(.text)
    Math::Draw(int)                          0x000064a9   Thumb Code   648  module.o(.text)
    Math::drawMSelector()                    0x00006731   Thumb Code   162  module.o(.text)
    Math::moveSelector(int)                  0x000067d5   Thumb Code    94  module.o(.text)
    Math::check(int)                         0x00006835   Thumb Code    50  module.o(.text)
    Math::select()                           0x00006869   Thumb Code    94  module.o(.text)
    Key_Init()                               0x000068c9   Thumb Code   134  module.o(.text)
    Key_In()                                 0x00006951   Thumb Code    32  module.o(.text)
    Key_InF()                                0x00006971   Thumb Code    32  module.o(.text)
    __use_two_region_memory                  0x00006a15   Thumb Code     2  heapauxi.o(.text)
    __rt_heap_escrow                         0x00006a17   Thumb Code     2  heapauxi.o(.text)
    __rt_heap_expand                         0x00006a19   Thumb Code     2  heapauxi.o(.text)
    __cpp_initialize__aeabi_                 0x00006a1d   Thumb Code    28  init_aeabi.o(.text)
    malloc                                   0x00006a41   Thumb Code    94  h1_alloc.o(.text)
    free                                     0x00006a9f   Thumb Code    78  h1_free.o(.text)
    __aeabi_memclr4                          0x00006aed   Thumb Code     0  rt_memclr_w.o(.text)
    __aeabi_memclr8                          0x00006aed   Thumb Code     0  rt_memclr_w.o(.text)
    __rt_memclr_w                            0x00006aed   Thumb Code     0  rt_memclr_w.o(.text)
    _memset_w                                0x00006af1   Thumb Code    74  rt_memclr_w.o(.text)
    strcmp                                   0x00006b41   Thumb Code   124  strcmpv7em.o(.text)
    _sys_exit                                0x00006bbd   Thumb Code     8  sys_exit.o(.text)
    __rt_heap_descriptor                     0x00006bc9   Thumb Code     8  rt_heap_descriptor_intlibspace.o(.text)
    __use_no_heap                            0x00006bd1   Thumb Code     2  hguard.o(.text)
    __heap$guard                             0x00006bd3   Thumb Code     2  hguard.o(.text)
    _terminate_user_alloc                    0x00006bd5   Thumb Code     2  init_alloc.o(.text)
    _init_user_alloc                         0x00006bd7   Thumb Code     2  init_alloc.o(.text)
    __Heap_Full                              0x00006bd9   Thumb Code    34  init_alloc.o(.text)
    __Heap_Broken                            0x00006bfb   Thumb Code     6  init_alloc.o(.text)
    _init_alloc                              0x00006c01   Thumb Code    94  init_alloc.o(.text)
    __Heap_Initialize                        0x00006c5f   Thumb Code    10  h1_init.o(.text)
    __Heap_DescSize                          0x00006c69   Thumb Code     4  h1_init.o(.text)
    __user_libspace                          0x00006c6d   Thumb Code     8  libspace.o(.text)
    __user_perproc_libspace                  0x00006c6d   Thumb Code     0  libspace.o(.text)
    __user_perthread_libspace                0x00006c6d   Thumb Code     0  libspace.o(.text)
    __I$use$semihosting                      0x00006c75   Thumb Code     0  use_no_semi.o(.text)
    __use_no_semihosting_swi                 0x00006c75   Thumb Code     2  use_no_semi.o(.text)
    __semihosting_library_function           0x00006c77   Thumb Code     0  indicate_semi.o(.text)
    __user_setup_stackheap                   0x00006c77   Thumb Code    74  sys_stackheap_outer.o(.text)
    __Heap_ProvideMemory                     0x00006cc1   Thumb Code    52  h1_extend.o(.text)
    _maybe_terminate_alloc                   0x00006cc1   Thumb Code     0  maybetermalloc1.o(.text)
    exit                                     0x00006cf5   Thumb Code    18  exit.o(.text)
    __sig_exit                               0x00006d07   Thumb Code    10  defsig_exit.o(.text)
    __rt_SIGRTMEM                            0x00006d11   Thumb Code    14  defsig_rtmem_outer.o(.text)
    __default_signal_display                 0x00006d1f   Thumb Code    50  defsig_general.o(.text)
    __rt_SIGRTMEM_inner                      0x00006d51   Thumb Code    22  defsig_rtmem_inner.o(.text)
    _ttywrch                                 0x00006da1   Thumb Code    14  sys_wrch.o(.text)
    __cxxabiv1::__enum_type_info::~__enum_type_info() 0x00006daf   Thumb Code     4  private_typeinfo.cpp.o(.text._ZN10__cxxabiv116__shim_type_infoD2Ev)
    __cxxabiv1::__enum_type_info::~__enum_type_info__sub_object() 0x00006daf   Thumb Code     4  private_typeinfo.cpp.o(.text._ZN10__cxxabiv116__shim_type_infoD2Ev)
    __cxxabiv1::__shim_type_info::~__shim_type_info() 0x00006daf   Thumb Code     4  private_typeinfo.cpp.o(.text._ZN10__cxxabiv116__shim_type_infoD2Ev)
    __cxxabiv1::__shim_type_info::~__shim_type_info__sub_object() 0x00006daf   Thumb Code     4  private_typeinfo.cpp.o(.text._ZN10__cxxabiv116__shim_type_infoD2Ev)
    __cxxabiv1::__array_type_info::~__array_type_info() 0x00006daf   Thumb Code     4  private_typeinfo.cpp.o(.text._ZN10__cxxabiv116__shim_type_infoD2Ev)
    __cxxabiv1::__array_type_info::~__array_type_info__sub_object() 0x00006daf   Thumb Code     4  private_typeinfo.cpp.o(.text._ZN10__cxxabiv116__shim_type_infoD2Ev)
    __cxxabiv1::__class_type_info::~__class_type_info() 0x00006daf   Thumb Code     4  private_typeinfo.cpp.o(.text._ZN10__cxxabiv116__shim_type_infoD2Ev)
    __cxxabiv1::__class_type_info::~__class_type_info__sub_object() 0x00006daf   Thumb Code     4  private_typeinfo.cpp.o(.text._ZN10__cxxabiv116__shim_type_infoD2Ev)
    __cxxabiv1::__pbase_type_info::~__pbase_type_info() 0x00006daf   Thumb Code     4  private_typeinfo.cpp.o(.text._ZN10__cxxabiv116__shim_type_infoD2Ev)
    __cxxabiv1::__pbase_type_info::~__pbase_type_info__sub_object() 0x00006daf   Thumb Code     4  private_typeinfo.cpp.o(.text._ZN10__cxxabiv116__shim_type_infoD2Ev)
    __cxxabiv1::__pointer_type_info::~__pointer_type_info() 0x00006daf   Thumb Code     4  private_typeinfo.cpp.o(.text._ZN10__cxxabiv116__shim_type_infoD2Ev)
    __cxxabiv1::__pointer_type_info::~__pointer_type_info__sub_object() 0x00006daf   Thumb Code     4  private_typeinfo.cpp.o(.text._ZN10__cxxabiv116__shim_type_infoD2Ev)
    __cxxabiv1::__function_type_info::~__function_type_info() 0x00006daf   Thumb Code     4  private_typeinfo.cpp.o(.text._ZN10__cxxabiv116__shim_type_infoD2Ev)
    __cxxabiv1::__function_type_info::~__function_type_info__sub_object() 0x00006daf   Thumb Code     4  private_typeinfo.cpp.o(.text._ZN10__cxxabiv116__shim_type_infoD2Ev)
    __cxxabiv1::__si_class_type_info::~__si_class_type_info() 0x00006daf   Thumb Code     4  private_typeinfo.cpp.o(.text._ZN10__cxxabiv116__shim_type_infoD2Ev)
    __cxxabiv1::__si_class_type_info::~__si_class_type_info__sub_object() 0x00006daf   Thumb Code     4  private_typeinfo.cpp.o(.text._ZN10__cxxabiv116__shim_type_infoD2Ev)
    __cxxabiv1::__vmi_class_type_info::~__vmi_class_type_info() 0x00006daf   Thumb Code     4  private_typeinfo.cpp.o(.text._ZN10__cxxabiv116__shim_type_infoD2Ev)
    __cxxabiv1::__vmi_class_type_info::~__vmi_class_type_info__sub_object() 0x00006daf   Thumb Code     4  private_typeinfo.cpp.o(.text._ZN10__cxxabiv116__shim_type_infoD2Ev)
    __cxxabiv1::__fundamental_type_info::~__fundamental_type_info() 0x00006daf   Thumb Code     4  private_typeinfo.cpp.o(.text._ZN10__cxxabiv116__shim_type_infoD2Ev)
    __cxxabiv1::__fundamental_type_info::~__fundamental_type_info__sub_object() 0x00006daf   Thumb Code     4  private_typeinfo.cpp.o(.text._ZN10__cxxabiv116__shim_type_infoD2Ev)
    __cxxabiv1::__pointer_to_member_type_info::~__pointer_to_member_type_info() 0x00006daf   Thumb Code     4  private_typeinfo.cpp.o(.text._ZN10__cxxabiv116__shim_type_infoD2Ev)
    __cxxabiv1::__pointer_to_member_type_info::~__pointer_to_member_type_info__sub_object() 0x00006daf   Thumb Code     4  private_typeinfo.cpp.o(.text._ZN10__cxxabiv116__shim_type_infoD2Ev)
    __cxxabiv1::__class_type_info::~__class_type_info__deallocating() 0x00006db3   Thumb Code    16  private_typeinfo.cpp.o(.text._ZN10__cxxabiv117__class_type_infoD0Ev)
    __cxxabiv1::__si_class_type_info::~__si_class_type_info__deallocating() 0x00006dc3   Thumb Code    16  private_typeinfo.cpp.o(.text._ZN10__cxxabiv120__si_class_type_infoD0Ev)
    __cxxabiv1::__vmi_class_type_info::~__vmi_class_type_info__deallocating() 0x00006dd3   Thumb Code    16  private_typeinfo.cpp.o(.text._ZN10__cxxabiv121__vmi_class_type_infoD0Ev)
    __cxxabiv1::__shim_type_info::noop1() const 0x00006de3   Thumb Code     2  private_typeinfo.cpp.o(.text._ZNK10__cxxabiv116__shim_type_info5noop1Ev)
    __cxxabiv1::__shim_type_info::noop2() const 0x00006de5   Thumb Code     2  private_typeinfo.cpp.o(.text._ZNK10__cxxabiv116__shim_type_info5noop2Ev)
    __cxxabiv1::__class_type_info::search_above_dst(__cxxabiv1::__dynamic_cast_info*, void const*, void const*, int, bool) const 0x00006de7   Thumb Code    62  private_typeinfo.cpp.o(.text._ZNK10__cxxabiv117__class_type_info16search_above_dstEPNS_19__dynamic_cast_infoEPKvS4_ib)
    __cxxabiv1::__class_type_info::search_below_dst(__cxxabiv1::__dynamic_cast_info*, void const*, int, bool) const 0x00006e25   Thumb Code   160  private_typeinfo.cpp.o(.text._ZNK10__cxxabiv117__class_type_info16search_below_dstEPNS_19__dynamic_cast_infoEPKvib)
    __cxxabiv1::__class_type_info::has_unambiguous_public_base(__cxxabiv1::__dynamic_cast_info*, void*, int) const 0x00006ec5   Thumb Code    68  private_typeinfo.cpp.o(.text._ZNK10__cxxabiv117__class_type_info27has_unambiguous_public_baseEPNS_19__dynamic_cast_infoEPvi)
    __cxxabiv1::__class_type_info::process_static_type_above_dst(__cxxabiv1::__dynamic_cast_info*, void const*, void const*, int) const 0x00006f09   Thumb Code    98  private_typeinfo.cpp.o(.text._ZNK10__cxxabiv117__class_type_info29process_static_type_above_dstEPNS_19__dynamic_cast_infoEPKvS4_i)
    __cxxabiv1::__class_type_info::can_catch(__cxxabiv1::__shim_type_info const*, void*&) const 0x00006f6b   Thumb Code   114  private_typeinfo.cpp.o(.text._ZNK10__cxxabiv117__class_type_info9can_catchEPKNS_16__shim_type_infoERPv)
    __cxxabiv1::__si_class_type_info::search_above_dst(__cxxabiv1::__dynamic_cast_info*, void const*, void const*, int, bool) const 0x00006fdd   Thumb Code    86  private_typeinfo.cpp.o(.text._ZNK10__cxxabiv120__si_class_type_info16search_above_dstEPNS_19__dynamic_cast_infoEPKvS4_ib)
    __cxxabiv1::__si_class_type_info::search_below_dst(__cxxabiv1::__dynamic_cast_info*, void const*, int, bool) const 0x00007033   Thumb Code   226  private_typeinfo.cpp.o(.text._ZNK10__cxxabiv120__si_class_type_info16search_below_dstEPNS_19__dynamic_cast_infoEPKvib)
    __cxxabiv1::__si_class_type_info::has_unambiguous_public_base(__cxxabiv1::__dynamic_cast_info*, void*, int) const 0x00007115   Thumb Code    82  private_typeinfo.cpp.o(.text._ZNK10__cxxabiv120__si_class_type_info27has_unambiguous_public_baseEPNS_19__dynamic_cast_infoEPvi)
    __cxxabiv1::__vmi_class_type_info::search_above_dst(__cxxabiv1::__dynamic_cast_info*, void const*, void const*, int, bool) const 0x00007169   Thumb Code   300  private_typeinfo.cpp.o(.text._ZNK10__cxxabiv121__vmi_class_type_info16search_above_dstEPNS_19__dynamic_cast_infoEPKvS4_ib)
    __cxxabiv1::__vmi_class_type_info::search_below_dst(__cxxabiv1::__dynamic_cast_info*, void const*, int, bool) const 0x00007295   Thumb Code   614  private_typeinfo.cpp.o(.text._ZNK10__cxxabiv121__vmi_class_type_info16search_below_dstEPNS_19__dynamic_cast_infoEPKvib)
    __cxxabiv1::__vmi_class_type_info::has_unambiguous_public_base(__cxxabiv1::__dynamic_cast_info*, void*, int) const 0x000074fd   Thumb Code   144  private_typeinfo.cpp.o(.text._ZNK10__cxxabiv121__vmi_class_type_info27has_unambiguous_public_baseEPNS_19__dynamic_cast_infoEPvi)
    __cxxabiv1::__base_class_type_info::has_unambiguous_public_base(__cxxabiv1::__dynamic_cast_info*, void*, int) const 0x0000758d   Thumb Code    54  private_typeinfo.cpp.o(.text._ZNK10__cxxabiv122__base_class_type_info27has_unambiguous_public_baseEPNS_19__dynamic_cast_infoEPvi)
    std::type_info::~type_info()             0x000075c3   Thumb Code     2  stdlib_typeinfo.cpp.o(.text._ZNSt9type_infoD2Ev)
    std::type_info::~type_info__sub_object() 0x000075c3   Thumb Code     2  stdlib_typeinfo.cpp.o(.text._ZNSt9type_infoD2Ev)
    std::get_new_handler()                   0x000075c5   Thumb Code    12  cxa_handlers.cpp.o(.text._ZSt15get_new_handlerv)
    operator delete(void*)                   0x000075d1   Thumb Code     4  new.cpp.o(.text._ZdlPv)
    operator delete(void*, unsigned int)     0x000075d5   Thumb Code     4  new.cpp.o(.text._ZdlPvj)
    operator new[](unsigned int)             0x000075d9   Thumb Code     4  new.cpp.o(.text._Znaj)
    operator new(unsigned int)               0x000075dd   Thumb Code    38  new.cpp.o(.text._Znwj)
    __dynamic_cast                           0x00007605   Thumb Code   170  private_typeinfo.cpp.o(.text.__dynamic_cast)
    __aeabi_fadd                             0x000076b1   Thumb Code     0  faddsub_clz.o(x$fpl$fadd)
    _fadd                                    0x000076b1   Thumb Code   196  faddsub_clz.o(x$fpl$fadd)
    __aeabi_fmul                             0x00007775   Thumb Code     0  fmul.o(x$fpl$fmul)
    _fmul                                    0x00007775   Thumb Code   258  fmul.o(x$fpl$fmul)
    __fpl_fnaninf                            0x00007877   Thumb Code   140  fnaninf.o(x$fpl$fnaninf)
    __fpl_fretinf                            0x00007903   Thumb Code    10  fretinf.o(x$fpl$fretinf)
    __aeabi_fsub                             0x0000790d   Thumb Code     0  faddsub_clz.o(x$fpl$fsub)
    _fsub                                    0x0000790d   Thumb Code   234  faddsub_clz.o(x$fpl$fsub)
    __I$use$fp                               0x000079f6   Number         0  usenofp.o(x$fpl$usenofp)
    typeinfo for Bomb                        0x000226d0   Data           8  module.o(.rodata._ZTI4Bomb)
    typeinfo for Math                        0x000226d8   Data          12  module.o(.rodata._ZTI4Math)
    typeinfo for Timer                       0x000226e4   Data          12  module.o(.rodata._ZTI5Timer)
    typeinfo for Wires                       0x000226f0   Data          12  module.o(.rodata._ZTI5Wires)
    typeinfo for Button                      0x000226fc   Data          12  module.o(.rodata._ZTI6Button)
    typeinfo for Module                      0x00022708   Data          24  module.o(.rodata._ZTI6Module)
    typeinfo for MorseCode                   0x00022720   Data          12  module.o(.rodata._ZTI9MorseCode)
    typeinfo for __cxxabiv1::__shim_type_info 0x0002272c   Data          12  private_typeinfo.cpp.o(.rodata._ZTIN10__cxxabiv116__shim_type_infoE)
    typeinfo for __cxxabiv1::__class_type_info 0x00022738   Data          12  private_typeinfo.cpp.o(.rodata._ZTIN10__cxxabiv117__class_type_infoE)
    typeinfo for __cxxabiv1::__si_class_type_info 0x00022744   Data          12  private_typeinfo.cpp.o(.rodata._ZTIN10__cxxabiv120__si_class_type_infoE)
    typeinfo for __cxxabiv1::__vmi_class_type_info 0x00022750   Data          12  private_typeinfo.cpp.o(.rodata._ZTIN10__cxxabiv121__vmi_class_type_infoE)
    typeinfo for std::type_info              0x0002275c   Data           8  stdlib_typeinfo.cpp.o(.rodata._ZTISt9type_info)
    typeinfo name for Bomb                   0x00022764   Data           6  module.o(.rodata._ZTS4Bomb)
    typeinfo name for Math                   0x0002276a   Data           6  module.o(.rodata._ZTS4Math)
    typeinfo name for Timer                  0x00022770   Data           7  module.o(.rodata._ZTS5Timer)
    typeinfo name for Wires                  0x00022777   Data           7  module.o(.rodata._ZTS5Wires)
    typeinfo name for Button                 0x0002277e   Data           8  module.o(.rodata._ZTS6Button)
    typeinfo name for Module                 0x00022786   Data           8  module.o(.rodata._ZTS6Module)
    typeinfo name for MorseCode              0x0002278e   Data          11  module.o(.rodata._ZTS9MorseCode)
    typeinfo name for __cxxabiv1::__shim_type_info 0x00022799   Data          33  private_typeinfo.cpp.o(.rodata._ZTSN10__cxxabiv116__shim_type_infoE)
    typeinfo name for __cxxabiv1::__class_type_info 0x000227ba   Data          34  private_typeinfo.cpp.o(.rodata._ZTSN10__cxxabiv117__class_type_infoE)
    typeinfo name for __cxxabiv1::__si_class_type_info 0x000227dc   Data          37  private_typeinfo.cpp.o(.rodata._ZTSN10__cxxabiv120__si_class_type_infoE)
    typeinfo name for __cxxabiv1::__vmi_class_type_info 0x00022801   Data          38  private_typeinfo.cpp.o(.rodata._ZTSN10__cxxabiv121__vmi_class_type_infoE)
    typeinfo name for std::type_info         0x00022827   Data          13  stdlib_typeinfo.cpp.o(.rodata._ZTSSt9type_info)
    vtable for Math                          0x00022834   Data          16  module.o(.rodata._ZTV4Math)
    vtable for Timer                         0x00022844   Data          16  module.o(.rodata._ZTV5Timer)
    vtable for Wires                         0x00022854   Data          16  module.o(.rodata._ZTV5Wires)
    vtable for Button                        0x00022864   Data          16  module.o(.rodata._ZTV6Button)
    vtable for Module                        0x00022874   Data          16  module.o(.rodata._ZTV6Module)
    vtable for MorseCode                     0x00022884   Data          16  module.o(.rodata._ZTV9MorseCode)
    vtable for __cxxabiv1::__class_type_info 0x00022894   Data          40  private_typeinfo.cpp.o(.rodata._ZTVN10__cxxabiv117__class_type_infoE)
    vtable for __cxxabiv1::__si_class_type_info 0x000228bc   Data          40  private_typeinfo.cpp.o(.rodata._ZTVN10__cxxabiv120__si_class_type_infoE)
    vtable for __cxxabiv1::__vmi_class_type_info 0x000228e4   Data          40  private_typeinfo.cpp.o(.rodata._ZTVN10__cxxabiv121__vmi_class_type_infoE)
    Region$$Table$$Base                      0x00022aa8   Number         0  anon$$obj.o(Region$$Table)
    Region$$Table$$Limit                     0x00022ac8   Number         0  anon$$obj.o(Region$$Table)
    SHT$$INIT_ARRAY$$Base                    0x00022ac8   Number         0  main.o(.init_array)
    SHT$$INIT_ARRAY$$Limit                   0x00022ad8   Number         0  init_aeabi.o(.init_array)
    ADCint                                   0x20000000   Data           4  main.o(.data.ADCint)
    StTextColor                              0x20000004   Data           2  st7735.o(.data.StTextColor)
    buttons                                  0x2000000c   Data          80  module.o(.data.buttons)
    math_images                              0x2000005c   Data         116  module.o(.data.math_images)
    morse                                    0x200000d0   Data          40  module.o(.data.morse)
    presses                                  0x200000f8   Data          12  timer1.o(.data.presses)
    selectormoved                            0x20000104   Data           1  main.o(.data.selectormoved)
    setUp                                    0x20000108   Data          48  main.o(.data.setUp)
    words                                    0x20000138   Data          40  module.o(.data.words)
    __libspace_start                         0x20000160   Data          96  libspace.o(.bss)
    ADCFlag                                  0x200001c0   Data           1  main.o(.bss.ADCFlag)
    __temporary_stack_top$libspace           0x200001c0   Data           0  libspace.o(.bss)
    ADCinterval                              0x200001c4   Data          88  main.o(.bss.ADCinterval)
    Length                                   0x2000021c   Data           4  sound.o(.bss.Length)
    Message                                  0x20000220   Data          12  st7735.o(.bss.Message)
    Messageindex                             0x2000022c   Data           4  st7735.o(.bss.Messageindex)
    PeriodicTask0                            0x20000230   Data           4  timer0.o(.bss.PeriodicTask0)
    PeriodicTask1                            0x20000234   Data           4  timer1.o(.bss.PeriodicTask1)
    PeriodicTask3                            0x20000238   Data           4  main.o(.bss.PeriodicTask3)
    RxFifo                                   0x2000023c   Data          40  uart.o(.bss.RxFifo)
    SoundPt                                  0x20000264   Data           4  sound.o(.bss.SoundPt)
    StX                                      0x20000268   Data           4  st7735.o(.bss.StX)
    StY                                      0x2000026c   Data           4  st7735.o(.bss.StY)
    X                                        0x20000270   Data           4  st7735.o(.bss.X)
    Ymax                                     0x20000274   Data           4  st7735.o(.bss.Ymax)
    Ymin                                     0x20000278   Data           4  st7735.o(.bss.Ymin)
    Yrange                                   0x2000027c   Data           4  st7735.o(.bss.Yrange)
    __cxa_new_handler                        0x20000288   Data           4  cxa_default_handlers.cpp.o(.bss.__cxa_new_handler)
    answer                                   0x2000028c   Data           4  timer1.o(.bss.answer)
    b                                        0x20000290   Data          44  main.o(.bss.b)
    b1                                       0x200002bc   Data           4  main.o(.bss.b1)
    b2                                       0x200002c0   Data           4  main.o(.bss.b2)
    img1                                     0x200002c4   Data          12  module.o(.bss.img1)
    img10                                    0x200002d0   Data          12  module.o(.bss.img10)
    img11                                    0x200002dc   Data          12  module.o(.bss.img11)
    img12                                    0x200002e8   Data          12  module.o(.bss.img12)
    img13                                    0x200002f4   Data          12  module.o(.bss.img13)
    img14                                    0x20000300   Data          12  module.o(.bss.img14)
    img15                                    0x2000030c   Data          12  module.o(.bss.img15)
    img16                                    0x20000318   Data          12  module.o(.bss.img16)
    img17                                    0x20000324   Data          12  module.o(.bss.img17)
    img18                                    0x20000330   Data          12  module.o(.bss.img18)
    img19                                    0x2000033c   Data          12  module.o(.bss.img19)
    img2                                     0x20000348   Data          12  module.o(.bss.img2)
    img20                                    0x20000354   Data          12  module.o(.bss.img20)
    img21                                    0x20000360   Data          12  module.o(.bss.img21)
    img22                                    0x2000036c   Data          12  module.o(.bss.img22)
    img23                                    0x20000378   Data          12  module.o(.bss.img23)
    img24                                    0x20000384   Data          12  module.o(.bss.img24)
    img25                                    0x20000390   Data          12  module.o(.bss.img25)
    img26                                    0x2000039c   Data          12  module.o(.bss.img26)
    img27                                    0x200003a8   Data          12  module.o(.bss.img27)
    img28                                    0x200003b4   Data          12  module.o(.bss.img28)
    img3                                     0x200003c0   Data          12  module.o(.bss.img3)
    img4                                     0x200003cc   Data          12  module.o(.bss.img4)
    img5                                     0x200003d8   Data          12  module.o(.bss.img5)
    img6                                     0x200003e4   Data          12  module.o(.bss.img6)
    img7                                     0x200003f0   Data          12  module.o(.bss.img7)
    img8                                     0x200003fc   Data          12  module.o(.bss.img8)
    img9                                     0x20000408   Data          12  module.o(.bss.img9)
    imgarray                                 0x20000414   Data         348  module.o(.bss.imgarray)
    imgdigits                                0x20000570   Data         132  module.o(.bss.imgdigits)
    imgops                                   0x200005f4   Data          48  module.o(.bss.imgops)
    imgposs                                  0x20000624   Data         288  module.o(.bss.imgposs)
    language                                 0x20000744   Data           4  main.o(.bss.language)
    lastj                                    0x20000748   Data           4  st7735.o(.bss.lastj)
    m1                                       0x2000074c   Data           4  main.o(.bss.m1)
    m2                                       0x20000750   Data           4  main.o(.bss.m2)
    mc1                                      0x20000754   Data           4  main.o(.bss.mc1)
    mc2                                      0x20000758   Data           4  main.o(.bss.mc2)
    modules                                  0x2000075c   Data          48  main.o(.bss.modules)
    my                                       0x2000078c   Data          20  main.o(.bss.my)
    num_MorseCode                            0x200007a0   Data           4  main.o(.bss.num_MorseCode)
    num_button                               0x200007a4   Data           4  main.o(.bss.num_button)
    num_math                                 0x200007a8   Data           4  main.o(.bss.num_math)
    num_wires                                0x200007ac   Data           4  main.o(.bss.num_wires)
    onetime                                  0x200007b0   Data           1  timer1.o(.bss.onetime)
    pressed                                  0x200007b4   Data           4  timer1.o(.bss.pressed)
    prev_sel                                 0x200007b8   Data           4  timer1.o(.bss.prev_sel)
    screen                                   0x200007bc   Data           4  main.o(.bss.screen)
    selectorclicked                          0x200007c0   Data           1  main.o(.bss.selectorclicked)
    t                                        0x200007c4   Data           4  main.o(.bss.t)
    tentime                                  0x200007c8   Data           1  timer1.o(.bss.tentime)
    timer_location                           0x200007cc   Data           4  main.o(.bss.timer_location)
    w1                                       0x200007d0   Data           4  main.o(.bss.w1)
    w2                                       0x200007d4   Data           4  main.o(.bss.w2)
    waited                                   0x200007d8   Data           4  timer1.o(.bss.waited)



==============================================================================

Memory Map of the image

  Image Entry point : 0x0000026d

  Load Region LR_IROM1 (Base: 0x00000000, Size: 0x00022c38, Max: 0x00040000, ABSOLUTE)

    Execution Region ER_IROM1 (Exec base: 0x00000000, Load base: 0x00000000, Size: 0x00022ad8, Max: 0x00040000, ABSOLUTE)

    Exec Addr    Load Addr    Size         Type   Attr      Idx    E Section Name        Object

    0x00000000   0x00000000   0x0000026c   Data   RO            3    RESET               startup_tm4c123.o
    0x0000026c   0x0000026c   0x00000008   Code   RO          318  * !!!main             c_w.l(__main.o)
    0x00000274   0x00000274   0x00000034   Code   RO         1042    !!!scatter          c_w.l(__scatter.o)
    0x000002a8   0x000002a8   0x0000001a   Code   RO         1044    !!handler_copy      c_w.l(__scatter_copy.o)
    0x000002c2   0x000002c2   0x00000002   PAD
    0x000002c4   0x000002c4   0x0000001c   Code   RO         1046    !!handler_zi        c_w.l(__scatter_zi.o)
    0x000002e0   0x000002e0   0x00000002   Code   RO          979    .ARM.Collect$$libinit$$00000000  c_w.l(libinit.o)
    0x000002e2   0x000002e2   0x00000000   Code   RO          720    .ARM.Collect$$libinit$$00000002  c_w.l(libinit2.o)
    0x000002e2   0x000002e2   0x00000000   Code   RO          722    .ARM.Collect$$libinit$$00000004  c_w.l(libinit2.o)
    0x000002e2   0x000002e2   0x00000000   Code   RO          724    .ARM.Collect$$libinit$$00000006  c_w.l(libinit2.o)
    0x000002e2   0x000002e2   0x00000008   Code   RO          725    .ARM.Collect$$libinit$$00000007  c_w.l(libinit2.o)
    0x000002ea   0x000002ea   0x00000000   Code   RO          727    .ARM.Collect$$libinit$$0000000C  c_w.l(libinit2.o)
    0x000002ea   0x000002ea   0x00000000   Code   RO          729    .ARM.Collect$$libinit$$0000000E  c_w.l(libinit2.o)
    0x000002ea   0x000002ea   0x00000000   Code   RO          731    .ARM.Collect$$libinit$$00000010  c_w.l(libinit2.o)
    0x000002ea   0x000002ea   0x00000000   Code   RO          734    .ARM.Collect$$libinit$$00000013  c_w.l(libinit2.o)
    0x000002ea   0x000002ea   0x00000000   Code   RO          736    .ARM.Collect$$libinit$$00000015  c_w.l(libinit2.o)
    0x000002ea   0x000002ea   0x00000000   Code   RO          738    .ARM.Collect$$libinit$$00000017  c_w.l(libinit2.o)
    0x000002ea   0x000002ea   0x00000000   Code   RO          740    .ARM.Collect$$libinit$$00000019  c_w.l(libinit2.o)
    0x000002ea   0x000002ea   0x00000000   Code   RO          742    .ARM.Collect$$libinit$$0000001B  c_w.l(libinit2.o)
    0x000002ea   0x000002ea   0x00000000   Code   RO          744    .ARM.Collect$$libinit$$0000001D  c_w.l(libinit2.o)
    0x000002ea   0x000002ea   0x00000000   Code   RO          746    .ARM.Collect$$libinit$$0000001F  c_w.l(libinit2.o)
    0x000002ea   0x000002ea   0x00000000   Code   RO          748    .ARM.Collect$$libinit$$00000021  c_w.l(libinit2.o)
    0x000002ea   0x000002ea   0x00000000   Code   RO          750    .ARM.Collect$$libinit$$00000023  c_w.l(libinit2.o)
    0x000002ea   0x000002ea   0x00000000   Code   RO          752    .ARM.Collect$$libinit$$00000025  c_w.l(libinit2.o)
    0x000002ea   0x000002ea   0x00000000   Code   RO          754    .ARM.Collect$$libinit$$00000027  c_w.l(libinit2.o)
    0x000002ea   0x000002ea   0x00000000   Code   RO          758    .ARM.Collect$$libinit$$0000002E  c_w.l(libinit2.o)
    0x000002ea   0x000002ea   0x00000000   Code   RO          760    .ARM.Collect$$libinit$$00000030  c_w.l(libinit2.o)
    0x000002ea   0x000002ea   0x00000000   Code   RO          762    .ARM.Collect$$libinit$$00000032  c_w.l(libinit2.o)
    0x000002ea   0x000002ea   0x00000004   Code   RO          763    .ARM.Collect$$libinit$$00000033  c_w.l(libinit2.o)
    0x000002ee   0x000002ee   0x00000000   Code   RO          764    .ARM.Collect$$libinit$$00000034  c_w.l(libinit2.o)
    0x000002ee   0x000002ee   0x00000002   Code   RO          765    .ARM.Collect$$libinit$$00000035  c_w.l(libinit2.o)
    0x000002f0   0x000002f0   0x00000002   Code   RO         1039    .ARM.Collect$$libshutdown$$00000000  c_w.l(libshutdown.o)
    0x000002f2   0x000002f2   0x00000000   Code   RO         1008    .ARM.Collect$$libshutdown$$00000002  c_w.l(libshutdown2.o)
    0x000002f2   0x000002f2   0x00000000   Code   RO         1010    .ARM.Collect$$libshutdown$$00000004  c_w.l(libshutdown2.o)
    0x000002f2   0x000002f2   0x00000000   Code   RO         1013    .ARM.Collect$$libshutdown$$00000007  c_w.l(libshutdown2.o)
    0x000002f2   0x000002f2   0x00000000   Code   RO         1016    .ARM.Collect$$libshutdown$$0000000A  c_w.l(libshutdown2.o)
    0x000002f2   0x000002f2   0x00000000   Code   RO         1018    .ARM.Collect$$libshutdown$$0000000C  c_w.l(libshutdown2.o)
    0x000002f2   0x000002f2   0x00000000   Code   RO         1021    .ARM.Collect$$libshutdown$$0000000F  c_w.l(libshutdown2.o)
    0x000002f2   0x000002f2   0x00000002   Code   RO         1022    .ARM.Collect$$libshutdown$$00000010  c_w.l(libshutdown2.o)
    0x000002f4   0x000002f4   0x00000000   Code   RO          646    .ARM.Collect$$rtentry$$00000000  c_w.l(__rtentry.o)
    0x000002f4   0x000002f4   0x00000000   Code   RO          835    .ARM.Collect$$rtentry$$00000002  c_w.l(__rtentry2.o)
    0x000002f4   0x000002f4   0x00000006   Code   RO          847    .ARM.Collect$$rtentry$$00000004  c_w.l(__rtentry4.o)
    0x000002fa   0x000002fa   0x00000000   Code   RO          837    .ARM.Collect$$rtentry$$00000009  c_w.l(__rtentry2.o)
    0x000002fa   0x000002fa   0x00000004   Code   RO          838    .ARM.Collect$$rtentry$$0000000A  c_w.l(__rtentry2.o)
    0x000002fe   0x000002fe   0x00000000   Code   RO          840    .ARM.Collect$$rtentry$$0000000C  c_w.l(__rtentry2.o)
    0x000002fe   0x000002fe   0x00000008   Code   RO          841    .ARM.Collect$$rtentry$$0000000D  c_w.l(__rtentry2.o)
    0x00000306   0x00000306   0x00000002   Code   RO          980    .ARM.Collect$$rtexit$$00000000  c_w.l(rtexit.o)
    0x00000308   0x00000308   0x00000000   Code   RO          995    .ARM.Collect$$rtexit$$00000002  c_w.l(rtexit2.o)
    0x00000308   0x00000308   0x00000004   Code   RO          996    .ARM.Collect$$rtexit$$00000003  c_w.l(rtexit2.o)
    0x0000030c   0x0000030c   0x00000006   Code   RO          997    .ARM.Collect$$rtexit$$00000004  c_w.l(rtexit2.o)
    0x00000312   0x00000312   0x00000002   PAD
    0x00000314   0x00000314   0x00000128   Code   RO            4    .text               startup_tm4c123.o
    0x0000043c   0x0000043c   0x00000a08   Code   RO           10    .text               main.o
    0x00000e44   0x00000e44   0x0000006c   Code   RO           61    .text               dac.o
    0x00000eb0   0x00000eb0   0x0000008a   Code   RO           68    .text               pll.o
    0x00000f3a   0x00000f3a   0x00000002   PAD
    0x00000f3c   0x00000f3c   0x0000005c   Code   RO           75    .text               random.o
    0x00000f98   0x00000f98   0x00001b8a   Code   RO           83    .text               st7735.o
    0x00002b22   0x00002b22   0x00000002   PAD
    0x00002b24   0x00002b24   0x000001d0   Code   RO          116    .text               slidepot.o
    0x00002cf4   0x00002cf4   0x00000180   Code   RO          123    .text               sound.o
    0x00002e74   0x00002e74   0x000000d8   Code   RO          135    .text               timer0.o
    0x00002f4c   0x00002f4c   0x00000b6c   Code   RO          145    .text               timer1.o
    0x00003ab8   0x00003ab8   0x000000b0   Code   RO          161    .text               uart.o
    0x00003b68   0x00003b68   0x00000048   Code   RO          170    .text               fifo.o
    0x00003bb0   0x00003bb0   0x0000028c   Code   RO          177    .text               texas.o
    0x00003e3c   0x00003e3c   0x00002bd8   Code   RO          184    .text               module.o
    0x00006a14   0x00006a14   0x00000006   Code   RO          316    .text               c_w.l(heapauxi.o)
    0x00006a1a   0x00006a1a   0x00000002   PAD
    0x00006a1c   0x00006a1c   0x00000024   Code   RO          323    .text               c_w.l(init_aeabi.o)
    0x00006a40   0x00006a40   0x0000005e   Code   RO          651    .text               c_w.l(h1_alloc.o)
    0x00006a9e   0x00006a9e   0x0000004e   Code   RO          653    .text               c_w.l(h1_free.o)
    0x00006aec   0x00006aec   0x0000004e   Code   RO          715    .text               c_w.l(rt_memclr_w.o)
    0x00006b3a   0x00006b3a   0x00000006   PAD
    0x00006b40   0x00006b40   0x0000007c   Code   RO          717    .text               c_w.l(strcmpv7em.o)
    0x00006bbc   0x00006bbc   0x0000000c   Code   RO          828    .text               c_w.l(sys_exit.o)
    0x00006bc8   0x00006bc8   0x00000008   Code   RO          852    .text               c_w.l(rt_heap_descriptor_intlibspace.o)
    0x00006bd0   0x00006bd0   0x00000004   Code   RO          854    .text               c_w.l(hguard.o)
    0x00006bd4   0x00006bd4   0x0000008a   Code   RO          856    .text               c_w.l(init_alloc.o)
    0x00006c5e   0x00006c5e   0x0000000e   Code   RO          860    .text               c_w.l(h1_init.o)
    0x00006c6c   0x00006c6c   0x00000008   Code   RO          939    .text               c_w.l(libspace.o)
    0x00006c74   0x00006c74   0x00000002   Code   RO          942    .text               c_w.l(use_no_semi.o)
    0x00006c76   0x00006c76   0x00000000   Code   RO          944    .text               c_w.l(indicate_semi.o)
    0x00006c76   0x00006c76   0x0000004a   Code   RO          945    .text               c_w.l(sys_stackheap_outer.o)
    0x00006cc0   0x00006cc0   0x00000000   Code   RO          951    .text               c_w.l(maybetermalloc1.o)
    0x00006cc0   0x00006cc0   0x00000034   Code   RO          953    .text               c_w.l(h1_extend.o)
    0x00006cf4   0x00006cf4   0x00000012   Code   RO          957    .text               c_w.l(exit.o)
    0x00006d06   0x00006d06   0x0000000a   Code   RO          959    .text               c_w.l(defsig_exit.o)
    0x00006d10   0x00006d10   0x0000000e   Code   RO          963    .text               c_w.l(defsig_rtmem_outer.o)
    0x00006d1e   0x00006d1e   0x00000032   Code   RO          986    .text               c_w.l(defsig_general.o)
    0x00006d50   0x00006d50   0x00000050   Code   RO          988    .text               c_w.l(defsig_rtmem_inner.o)
    0x00006da0   0x00006da0   0x0000000e   Code   RO          990    .text               c_w.l(sys_wrch.o)
    0x00006dae   0x00006dae   0x00000004   Code   RO          380    .text._ZN10__cxxabiv116__shim_type_infoD2Ev  libcppabi_w.l(private_typeinfo.cpp.o)
    0x00006db2   0x00006db2   0x00000010   Code   RO          396    .text._ZN10__cxxabiv117__class_type_infoD0Ev  libcppabi_w.l(private_typeinfo.cpp.o)
    0x00006dc2   0x00006dc2   0x00000010   Code   RO          398    .text._ZN10__cxxabiv120__si_class_type_infoD0Ev  libcppabi_w.l(private_typeinfo.cpp.o)
    0x00006dd2   0x00006dd2   0x00000010   Code   RO          400    .text._ZN10__cxxabiv121__vmi_class_type_infoD0Ev  libcppabi_w.l(private_typeinfo.cpp.o)
    0x00006de2   0x00006de2   0x00000002   Code   RO          384    .text._ZNK10__cxxabiv116__shim_type_info5noop1Ev  libcppabi_w.l(private_typeinfo.cpp.o)
    0x00006de4   0x00006de4   0x00000002   Code   RO          386    .text._ZNK10__cxxabiv116__shim_type_info5noop2Ev  libcppabi_w.l(private_typeinfo.cpp.o)
    0x00006de6   0x00006de6   0x0000003e   Code   RO          458    .text._ZNK10__cxxabiv117__class_type_info16search_above_dstEPNS_19__dynamic_cast_infoEPKvS4_ib  libcppabi_w.l(private_typeinfo.cpp.o)
    0x00006e24   0x00006e24   0x000000a0   Code   RO          452    .text._ZNK10__cxxabiv117__class_type_info16search_below_dstEPNS_19__dynamic_cast_infoEPKvib  libcppabi_w.l(private_typeinfo.cpp.o)
    0x00006ec4   0x00006ec4   0x00000044   Code   RO          422    .text._ZNK10__cxxabiv117__class_type_info27has_unambiguous_public_baseEPNS_19__dynamic_cast_infoEPvi  libcppabi_w.l(private_typeinfo.cpp.o)
    0x00006f08   0x00006f08   0x00000062   Code   RO          440    .text._ZNK10__cxxabiv117__class_type_info29process_static_type_above_dstEPNS_19__dynamic_cast_infoEPKvS4_i  libcppabi_w.l(private_typeinfo.cpp.o)
    0x00006f6a   0x00006f6a   0x00000072   Code   RO          416    .text._ZNK10__cxxabiv117__class_type_info9can_catchEPKNS_16__shim_type_infoERPv  libcppabi_w.l(private_typeinfo.cpp.o)
    0x00006fdc   0x00006fdc   0x00000056   Code   RO          456    .text._ZNK10__cxxabiv120__si_class_type_info16search_above_dstEPNS_19__dynamic_cast_infoEPKvS4_ib  libcppabi_w.l(private_typeinfo.cpp.o)
    0x00007032   0x00007032   0x000000e2   Code   RO          450    .text._ZNK10__cxxabiv120__si_class_type_info16search_below_dstEPNS_19__dynamic_cast_infoEPKvib  libcppabi_w.l(private_typeinfo.cpp.o)
    0x00007114   0x00007114   0x00000052   Code   RO          424    .text._ZNK10__cxxabiv120__si_class_type_info27has_unambiguous_public_baseEPNS_19__dynamic_cast_infoEPvi  libcppabi_w.l(private_typeinfo.cpp.o)
    0x00007166   0x00007166   0x00000002   PAD
    0x00007168   0x00007168   0x0000012c   Code   RO          454    .text._ZNK10__cxxabiv121__vmi_class_type_info16search_above_dstEPNS_19__dynamic_cast_infoEPKvS4_ib  libcppabi_w.l(private_typeinfo.cpp.o)
    0x00007294   0x00007294   0x00000266   Code   RO          444    .text._ZNK10__cxxabiv121__vmi_class_type_info16search_below_dstEPNS_19__dynamic_cast_infoEPKvib  libcppabi_w.l(private_typeinfo.cpp.o)
    0x000074fa   0x000074fa   0x00000002   PAD
    0x000074fc   0x000074fc   0x00000090   Code   RO          428    .text._ZNK10__cxxabiv121__vmi_class_type_info27has_unambiguous_public_baseEPNS_19__dynamic_cast_infoEPvi  libcppabi_w.l(private_typeinfo.cpp.o)
    0x0000758c   0x0000758c   0x00000036   Code   RO          426    .text._ZNK10__cxxabiv122__base_class_type_info27has_unambiguous_public_baseEPNS_19__dynamic_cast_infoEPvi  libcppabi_w.l(private_typeinfo.cpp.o)
    0x000075c2   0x000075c2   0x00000002   Code   RO          798    .text._ZNSt9type_infoD2Ev  libcppabi_w.l(stdlib_typeinfo.cpp.o)
    0x000075c4   0x000075c4   0x0000000c   Code   RO          788    .text._ZSt15get_new_handlerv  libcppabi_w.l(cxa_handlers.cpp.o)
    0x000075d0   0x000075d0   0x00000004   Code   RO          345    .text._ZdlPv        libcpp_w.l(new.cpp.o)
    0x000075d4   0x000075d4   0x00000004   Code   RO          349    .text._ZdlPvj       libcpp_w.l(new.cpp.o)
    0x000075d8   0x000075d8   0x00000004   Code   RO          341    .text._Znaj         libcpp_w.l(new.cpp.o)
    0x000075dc   0x000075dc   0x00000026   Code   RO          337    .text._Znwj         libcpp_w.l(new.cpp.o)
    0x00007602   0x00007602   0x00000002   PAD
    0x00007604   0x00007604   0x000000aa   Code   RO          418    .text.__dynamic_cast  libcppabi_w.l(private_typeinfo.cpp.o)
    0x000076ae   0x000076ae   0x00000002   PAD
    0x000076b0   0x000076b0   0x000000c4   Code   RO          326    x$fpl$fadd          fz_ws.l(faddsub_clz.o)
    0x00007774   0x00007774   0x00000102   Code   RO          332    x$fpl$fmul          fz_ws.l(fmul.o)
    0x00007876   0x00007876   0x0000008c   Code   RO          770    x$fpl$fnaninf       fz_ws.l(fnaninf.o)
    0x00007902   0x00007902   0x0000000a   Code   RO          772    x$fpl$fretinf       fz_ws.l(fretinf.o)
    0x0000790c   0x0000790c   0x000000ea   Code   RO          328    x$fpl$fsub          fz_ws.l(faddsub_clz.o)
    0x000079f6   0x000079f6   0x00000000   Code   RO          774    x$fpl$usenofp       fz_ws.l(usenofp.o)
    0x000079f6   0x000079f6   0x0000000d   Data   RO           90    .rodata._ZL10Rcmd2green  st7735.o
    0x00007a03   0x00007a03   0x00001928   Data   RO          128    .rodata._ZL10bExplosion  sound.o
    0x0000932b   0x0000932b   0x00000001   PAD
    0x0000932c   0x0000932c   0x00000c80   Data   RO          227    .rodata._ZL10blue_abort  module.o
    0x00009fac   0x00009fac   0x00000c80   Data   RO          231    .rodata._ZL10blue_press  module.o
    0x0000ac2c   0x0000ac2c   0x00000c80   Data   RO          238    .rodata._ZL10white_hold  module.o
    0x0000b8ac   0x0000b8ac   0x00000c80   Data   RO          241    .rodata._ZL10white_stop  module.o
    0x0000c52c   0x0000c52c   0x00000708   Data   RO          224    .rodata._ZL11emptymodule  module.o
    0x0000cc34   0x0000cc34   0x00000028   Data   RO          252    .rodata._ZL11frequencies  module.o
    0x0000cc5c   0x0000cc5c   0x00000024   Data   RO           98    .rodata._ZL11smallCircle  st7735.o
    0x0000cc80   0x0000cc80   0x00000c80   Data   RO          237    .rodata._ZL11white_abort  module.o
    0x0000d900   0x0000d900   0x00000c80   Data   RO          240    .rodata._ZL11white_press  module.o
    0x0000e580   0x0000e580   0x00000c80   Data   RO          243    .rodata._ZL11yellow_hold  module.o
    0x0000f200   0x0000f200   0x00000c80   Data   RO          246    .rodata._ZL11yellow_stop  module.o
    0x0000fe80   0x0000fe80   0x00000032   Data   RO          223    .rodata._ZL12solved_light  module.o
    0x0000feb2   0x0000feb2   0x00000c80   Data   RO          245    .rodata._ZL12yellow_press  module.o
    0x00010b32   0x00010b32   0x00000c80   Data   RO          242    .rodata._ZL13yellow_bumper  module.o
    0x000117b2   0x000117b2   0x00000032   Data   RO          222    .rodata._ZL14unsolved_light  module.o
    0x000117e4   0x000117e4   0x00000067   Data   RO           88    .rodata._ZL4Bcmd    st7735.o
    0x0001184b   0x0001184b   0x000004fb   Data   RO          100    .rodata._ZL4Font    st7735.o
    0x00011d46   0x00011d46   0x00000200   Data   RO          110    .rodata._ZL4dBfs    st7735.o
    0x00011f46   0x00011f46   0x0000003b   Data   RO           89    .rodata._ZL5Rcmd1   st7735.o
    0x00011f81   0x00011f81   0x0000002b   Data   RO           94    .rodata._ZL5Rcmd3   st7735.o
    0x00011fac   0x00011fac   0x000022b0   Data   RO           51    .rodata._ZL5title   main.o
    0x0001425c   0x0001425c   0x0000003c   Data   RO           99    .rodata._ZL6circle  st7735.o
    0x00014298   0x00014298   0x00000050   Data   RO          249    .rodata._ZL6colors  module.o
    0x000142e8   0x000142e8   0x00000152   Data   RO          186    .rodata._ZL6image1  module.o
    0x0001443a   0x0001443a   0x00000152   Data   RO          187    .rodata._ZL6image2  module.o
    0x0001458c   0x0001458c   0x00000152   Data   RO          188    .rodata._ZL6image3  module.o
    0x000146de   0x000146de   0x00000152   Data   RO          189    .rodata._ZL6image4  module.o
    0x00014830   0x00014830   0x00000152   Data   RO          190    .rodata._ZL6image5  module.o
    0x00014982   0x00014982   0x00000152   Data   RO          191    .rodata._ZL6image6  module.o
    0x00014ad4   0x00014ad4   0x00000152   Data   RO          192    .rodata._ZL6image7  module.o
    0x00014c26   0x00014c26   0x00000152   Data   RO          193    .rodata._ZL6image8  module.o
    0x00014d78   0x00014d78   0x00000152   Data   RO          194    .rodata._ZL6image9  module.o
    0x00014eca   0x00014eca   0x00000c80   Data   RO          234    .rodata._ZL6red_no  module.o
    0x00015b4a   0x00015b4a   0x0000008c   Data   RO          218    .rodata._ZL6strike  module.o
    0x00015bd6   0x00015bd6   0x00000002   PAD
    0x00015bd8   0x00015bd8   0x00000034   Data   RO          220    .rodata._ZL6xCords  module.o
    0x00015c0c   0x00015c0c   0x00000034   Data   RO          221    .rodata._ZL6yCords  module.o
    0x00015c40   0x00015c40   0x00000c80   Data   RO          229    .rodata._ZL7blue_no  module.o
    0x000168c0   0x000168c0   0x00000152   Data   RO          195    .rodata._ZL7image10  module.o
    0x00016a12   0x00016a12   0x00000152   Data   RO          196    .rodata._ZL7image11  module.o
    0x00016b64   0x00016b64   0x00000152   Data   RO          197    .rodata._ZL7image12  module.o
    0x00016cb6   0x00016cb6   0x00000152   Data   RO          198    .rodata._ZL7image13  module.o
    0x00016e08   0x00016e08   0x00000152   Data   RO          199    .rodata._ZL7image14  module.o
    0x00016f5a   0x00016f5a   0x00000152   Data   RO          200    .rodata._ZL7image15  module.o
    0x000170ac   0x000170ac   0x00000152   Data   RO          201    .rodata._ZL7image16  module.o
    0x000171fe   0x000171fe   0x00000152   Data   RO          202    .rodata._ZL7image17  module.o
    0x00017350   0x00017350   0x00000152   Data   RO          203    .rodata._ZL7image18  module.o
    0x000174a2   0x000174a2   0x00000152   Data   RO          204    .rodata._ZL7image19  module.o
    0x000175f4   0x000175f4   0x00000152   Data   RO          205    .rodata._ZL7image20  module.o
    0x00017746   0x00017746   0x00000152   Data   RO          206    .rodata._ZL7image21  module.o
    0x00017898   0x00017898   0x00000152   Data   RO          207    .rodata._ZL7image22  module.o
    0x000179ea   0x000179ea   0x00000152   Data   RO          208    .rodata._ZL7image23  module.o
    0x00017b3c   0x00017b3c   0x00000152   Data   RO          209    .rodata._ZL7image24  module.o
    0x00017c8e   0x00017c8e   0x00000152   Data   RO          210    .rodata._ZL7image25  module.o
    0x00017de0   0x00017de0   0x00000152   Data   RO          211    .rodata._ZL7image26  module.o
    0x00017f32   0x00017f32   0x00000152   Data   RO          212    .rodata._ZL7image27  module.o
    0x00018084   0x00018084   0x00000152   Data   RO          213    .rodata._ZL7image28  module.o
    0x000181d6   0x000181d6   0x00000002   PAD
    0x000181d8   0x000181d8   0x00000050   Data   RO          250    .rodata._ZL7phrases  module.o
    0x00018228   0x00018228   0x0000000d   Data   RO           93    .rodata._ZL8Rcmd2red  st7735.o
    0x00018235   0x00018235   0x0000409a   Data   RO          129    .rodata._ZL8complete  sound.o
    0x0001c2cf   0x0001c2cf   0x00000001   PAD
    0x0001c2d0   0x0001c2d0   0x00000c80   Data   RO          233    .rodata._ZL8red_hold  module.o
    0x0001cf50   0x0001cf50   0x00000c80   Data   RO          235    .rodata._ZL8red_stop  module.o
    0x0001dbd0   0x0001dbd0   0x00000c80   Data   RO          239    .rodata._ZL8white_no  module.o
    0x0001e850   0x0001e850   0x00000c80   Data   RO          228    .rodata._ZL9blue_hold  module.o
    0x0001f4d0   0x0001f4d0   0x00000c80   Data   RO          230    .rodata._ZL9blue_stop  module.o
    0x00020150   0x00020150   0x00000c80   Data   RO          232    .rodata._ZL9red_abort  module.o
    0x00020dd0   0x00020dd0   0x00000c80   Data   RO          236    .rodata._ZL9red_press  module.o
    0x00021a50   0x00021a50   0x00000c80   Data   RO          244    .rodata._ZL9yellow_no  module.o
    0x000226d0   0x000226d0   0x00000008   Data   RO          306    .rodata._ZTI4Bomb   module.o
    0x000226d8   0x000226d8   0x0000000c   Data   RO          298    .rodata._ZTI4Math   module.o
    0x000226e4   0x000226e4   0x0000000c   Data   RO          290    .rodata._ZTI5Timer  module.o
    0x000226f0   0x000226f0   0x0000000c   Data   RO          292    .rodata._ZTI5Wires  module.o
    0x000226fc   0x000226fc   0x0000000c   Data   RO          294    .rodata._ZTI6Button  module.o
    0x00022708   0x00022708   0x00000018   Data   RO          288    .rodata._ZTI6Module  module.o
    0x00022720   0x00022720   0x0000000c   Data   RO          296    .rodata._ZTI9MorseCode  module.o
    0x0002272c   0x0002272c   0x0000000c   Data   RO          461    .rodata._ZTIN10__cxxabiv116__shim_type_infoE  libcppabi_w.l(private_typeinfo.cpp.o)
    0x00022738   0x00022738   0x0000000c   Data   RO          463    .rodata._ZTIN10__cxxabiv117__class_type_infoE  libcppabi_w.l(private_typeinfo.cpp.o)
    0x00022744   0x00022744   0x0000000c   Data   RO          638    .rodata._ZTIN10__cxxabiv120__si_class_type_infoE  libcppabi_w.l(private_typeinfo.cpp.o)
    0x00022750   0x00022750   0x0000000c   Data   RO          641    .rodata._ZTIN10__cxxabiv121__vmi_class_type_infoE  libcppabi_w.l(private_typeinfo.cpp.o)
    0x0002275c   0x0002275c   0x00000008   Data   RO          822    .rodata._ZTISt9type_info  libcppabi_w.l(stdlib_typeinfo.cpp.o)
    0x00022764   0x00022764   0x00000006   Data   RO          305    .rodata._ZTS4Bomb   module.o
    0x0002276a   0x0002276a   0x00000006   Data   RO          297    .rodata._ZTS4Math   module.o
    0x00022770   0x00022770   0x00000007   Data   RO          289    .rodata._ZTS5Timer  module.o
    0x00022777   0x00022777   0x00000007   Data   RO          291    .rodata._ZTS5Wires  module.o
    0x0002277e   0x0002277e   0x00000008   Data   RO          293    .rodata._ZTS6Button  module.o
    0x00022786   0x00022786   0x00000008   Data   RO          287    .rodata._ZTS6Module  module.o
    0x0002278e   0x0002278e   0x0000000b   Data   RO          295    .rodata._ZTS9MorseCode  module.o
    0x00022799   0x00022799   0x00000021   Data   RO          460    .rodata._ZTSN10__cxxabiv116__shim_type_infoE  libcppabi_w.l(private_typeinfo.cpp.o)
    0x000227ba   0x000227ba   0x00000022   Data   RO          462    .rodata._ZTSN10__cxxabiv117__class_type_infoE  libcppabi_w.l(private_typeinfo.cpp.o)
    0x000227dc   0x000227dc   0x00000025   Data   RO          637    .rodata._ZTSN10__cxxabiv120__si_class_type_infoE  libcppabi_w.l(private_typeinfo.cpp.o)
    0x00022801   0x00022801   0x00000026   Data   RO          640    .rodata._ZTSN10__cxxabiv121__vmi_class_type_infoE  libcppabi_w.l(private_typeinfo.cpp.o)
    0x00022827   0x00022827   0x0000000d   Data   RO          821    .rodata._ZTSSt9type_info  libcppabi_w.l(stdlib_typeinfo.cpp.o)
    0x00022834   0x00022834   0x00000010   Data   RO          286    .rodata._ZTV4Math   module.o
    0x00022844   0x00022844   0x00000010   Data   RO          225    .rodata._ZTV5Timer  module.o
    0x00022854   0x00022854   0x00000010   Data   RO          226    .rodata._ZTV5Wires  module.o
    0x00022864   0x00022864   0x00000010   Data   RO          248    .rodata._ZTV6Button  module.o
    0x00022874   0x00022874   0x00000010   Data   RO          219    .rodata._ZTV6Module  module.o
    0x00022884   0x00022884   0x00000010   Data   RO          251    .rodata._ZTV9MorseCode  module.o
    0x00022894   0x00022894   0x00000028   Data   RO          635    .rodata._ZTVN10__cxxabiv117__class_type_infoE  libcppabi_w.l(private_typeinfo.cpp.o)
    0x000228bc   0x000228bc   0x00000028   Data   RO          636    .rodata._ZTVN10__cxxabiv120__si_class_type_infoE  libcppabi_w.l(private_typeinfo.cpp.o)
    0x000228e4   0x000228e4   0x00000028   Data   RO          639    .rodata._ZTVN10__cxxabiv121__vmi_class_type_infoE  libcppabi_w.l(private_typeinfo.cpp.o)
    0x0002290c   0x0002290c   0x0000006c   Data   RO           52    .rodata.str1.1      main.o
    0x00022978   0x00022978   0x0000001c   Data   RO          103    .rodata.str1.1      st7735.o
    0x00022994   0x00022994   0x00000111   Data   RO          215    .rodata.str1.1      module.o
    0x00022aa5   0x00022aa5   0x00000003   PAD
    0x00022aa8   0x00022aa8   0x00000020   Data   RO         1041    Region$$Table       anon$$obj.o
    0x00022ac8   0x00022ac8   0x00000004   Data   RO           54    .init_array         main.o
    0x00022acc   0x00022ac8   0x00000004   Data   RO          155    .init_array         timer1.o
    0x00022ad0   0x00022ac8   0x00000004   Data   RO          164    .init_array         uart.o
    0x00022ad4   0x00022ac8   0x00000004   Data   RO          299    .init_array         module.o
    0x00022ad8   0x00022ac8   0x00000000   Data   RO          321    .init_array         c_w.l(init_aeabi.o)


    Execution Region RW_IRAM1 (Exec base: 0x20000000, Load base: 0x00022ad8, Size: 0x00000fe0, Max: 0x00008000, ABSOLUTE)

    Exec Addr    Load Addr    Size         Type   Attr      Idx    E Section Name        Object

    0x20000000   0x00022ad8   0x00000004   Data   RW           46    .data.ADCint        main.o
    0x20000004   0x00022adc   0x00000002   Data   RW           87    .data.StTextColor   st7735.o
    0x20000006   0x00022ade   0x00000002   Data   RW           96    .data._ZL6_width    st7735.o
    0x20000008   0x00022ae0   0x00000002   Data   RW           97    .data._ZL7_height   st7735.o
    0x2000000a   0x00022ae2   0x00000002   PAD
    0x2000000c   0x00022ae4   0x00000050   Data   RW          247    .data.buttons       module.o
    0x2000005c   0x00022b34   0x00000074   Data   RW          214    .data.math_images   module.o
    0x200000d0   0x00022ba8   0x00000028   Data   RW          216    .data.morse         module.o
    0x200000f8   0x00022bd0   0x0000000c   Data   RW          151    .data.presses       timer1.o
    0x20000104   0x00022bdc   0x00000001   Data   RW           27    .data.selectormoved  main.o
    0x20000105   0x00022bdd   0x00000003   PAD
    0x20000108   0x00022be0   0x00000030   Data   RW           13    .data.setUp         main.o
    0x20000138   0x00022c10   0x00000028   Data   RW          217    .data.words         module.o
    0x20000160        -       0x00000060   Zero   RW          940    .bss                c_w.l(libspace.o)
    0x200001c0        -       0x00000001   Zero   RW           50    .bss.ADCFlag        main.o
    0x200001c1   0x00022c38   0x00000003   PAD
    0x200001c4        -       0x00000058   Zero   RW           47    .bss.ADCinterval    main.o
    0x2000021c        -       0x00000004   Zero   RW          126    .bss.Length         sound.o
    0x20000220        -       0x0000000c   Zero   RW          101    .bss.Message        st7735.o
    0x2000022c        -       0x00000004   Zero   RW          102    .bss.Messageindex   st7735.o
    0x20000230        -       0x00000004   Zero   RW          139    .bss.PeriodicTask0  timer0.o
    0x20000234        -       0x00000004   Zero   RW          147    .bss.PeriodicTask1  timer1.o
    0x20000238        -       0x00000004   Zero   RW           33    .bss.PeriodicTask3  main.o
    0x2000023c        -       0x00000028   Zero   RW          163    .bss.RxFifo         uart.o
    0x20000264        -       0x00000004   Zero   RW          127    .bss.SoundPt        sound.o
    0x20000268        -       0x00000004   Zero   RW           85    .bss.StX            st7735.o
    0x2000026c        -       0x00000004   Zero   RW           86    .bss.StY            st7735.o
    0x20000270        -       0x00000004   Zero   RW          107    .bss.X              st7735.o
    0x20000274        -       0x00000004   Zero   RW          105    .bss.Ymax           st7735.o
    0x20000278        -       0x00000004   Zero   RW          106    .bss.Ymin           st7735.o
    0x2000027c        -       0x00000004   Zero   RW          108    .bss.Yrange         st7735.o
    0x20000280        -       0x00000004   Zero   RW           77    .bss._ZL1M          random.o
    0x20000284        -       0x00000001   Zero   RW           91    .bss._ZL8ColStart   st7735.o
    0x20000285        -       0x00000001   Zero   RW          104    .bss._ZL8Rotation   st7735.o
    0x20000286        -       0x00000001   Zero   RW           92    .bss._ZL8RowStart   st7735.o
    0x20000287        -       0x00000001   Zero   RW           95    .bss._ZL8TabColor   st7735.o
    0x20000288        -       0x00000004   Zero   RW          897    .bss.__cxa_new_handler  libcppabi_w.l(cxa_default_handlers.cpp.o)
    0x2000028c        -       0x00000004   Zero   RW          154    .bss.answer         timer1.o
    0x20000290        -       0x0000002c   Zero   RW           17    .bss.b              main.o
    0x200002bc        -       0x00000004   Zero   RW           23    .bss.b1             main.o
    0x200002c0        -       0x00000004   Zero   RW           24    .bss.b2             main.o
    0x200002c4        -       0x0000000c   Zero   RW          253    .bss.img1           module.o
    0x200002d0        -       0x0000000c   Zero   RW          262    .bss.img10          module.o
    0x200002dc        -       0x0000000c   Zero   RW          263    .bss.img11          module.o
    0x200002e8        -       0x0000000c   Zero   RW          264    .bss.img12          module.o
    0x200002f4        -       0x0000000c   Zero   RW          265    .bss.img13          module.o
    0x20000300        -       0x0000000c   Zero   RW          266    .bss.img14          module.o
    0x2000030c        -       0x0000000c   Zero   RW          267    .bss.img15          module.o
    0x20000318        -       0x0000000c   Zero   RW          268    .bss.img16          module.o
    0x20000324        -       0x0000000c   Zero   RW          269    .bss.img17          module.o
    0x20000330        -       0x0000000c   Zero   RW          270    .bss.img18          module.o
    0x2000033c        -       0x0000000c   Zero   RW          271    .bss.img19          module.o
    0x20000348        -       0x0000000c   Zero   RW          254    .bss.img2           module.o
    0x20000354        -       0x0000000c   Zero   RW          272    .bss.img20          module.o
    0x20000360        -       0x0000000c   Zero   RW          273    .bss.img21          module.o
    0x2000036c        -       0x0000000c   Zero   RW          274    .bss.img22          module.o
    0x20000378        -       0x0000000c   Zero   RW          275    .bss.img23          module.o
    0x20000384        -       0x0000000c   Zero   RW          276    .bss.img24          module.o
    0x20000390        -       0x0000000c   Zero   RW          277    .bss.img25          module.o
    0x2000039c        -       0x0000000c   Zero   RW          278    .bss.img26          module.o
    0x200003a8        -       0x0000000c   Zero   RW          279    .bss.img27          module.o
    0x200003b4        -       0x0000000c   Zero   RW          280    .bss.img28          module.o
    0x200003c0        -       0x0000000c   Zero   RW          255    .bss.img3           module.o
    0x200003cc        -       0x0000000c   Zero   RW          256    .bss.img4           module.o
    0x200003d8        -       0x0000000c   Zero   RW          257    .bss.img5           module.o
    0x200003e4        -       0x0000000c   Zero   RW          258    .bss.img6           module.o
    0x200003f0        -       0x0000000c   Zero   RW          259    .bss.img7           module.o
    0x200003fc        -       0x0000000c   Zero   RW          260    .bss.img8           module.o
    0x20000408        -       0x0000000c   Zero   RW          261    .bss.img9           module.o
    0x20000414        -       0x0000015c   Zero   RW          281    .bss.imgarray       module.o
    0x20000570        -       0x00000084   Zero   RW          283    .bss.imgdigits      module.o
    0x200005f4        -       0x00000030   Zero   RW          284    .bss.imgops         module.o
    0x20000624        -       0x00000120   Zero   RW          285    .bss.imgposs        module.o
    0x20000744        -       0x00000004   Zero   RW           40    .bss.language       main.o
    0x20000748        -       0x00000004   Zero   RW          109    .bss.lastj          st7735.o
    0x2000074c        -       0x00000004   Zero   RW           21    .bss.m1             main.o
    0x20000750        -       0x00000004   Zero   RW           22    .bss.m2             main.o
    0x20000754        -       0x00000004   Zero   RW           25    .bss.mc1            main.o
    0x20000758        -       0x00000004   Zero   RW           26    .bss.mc2            main.o
    0x2000075c        -       0x00000030   Zero   RW           14    .bss.modules        main.o
    0x2000078c        -       0x00000014   Zero   RW           12    .bss.my             main.o
    0x200007a0        -       0x00000004   Zero   RW           31    .bss.num_MorseCode  main.o
    0x200007a4        -       0x00000004   Zero   RW           30    .bss.num_button     main.o
    0x200007a8        -       0x00000004   Zero   RW           29    .bss.num_math       main.o
    0x200007ac        -       0x00000004   Zero   RW           28    .bss.num_wires      main.o
    0x200007b0        -       0x00000001   Zero   RW          152    .bss.onetime        timer1.o
    0x200007b1   0x00022c38   0x00000003   PAD
    0x200007b4        -       0x00000004   Zero   RW          149    .bss.pressed        timer1.o
    0x200007b8        -       0x00000004   Zero   RW          148    .bss.prev_sel       timer1.o
    0x200007bc        -       0x00000004   Zero   RW           42    .bss.screen         main.o
    0x200007c0        -       0x00000001   Zero   RW           18    .bss.selectorclicked  main.o
    0x200007c1   0x00022c38   0x00000003   PAD
    0x200007c4        -       0x00000004   Zero   RW           15    .bss.t              main.o
    0x200007c8        -       0x00000001   Zero   RW          153    .bss.tentime        timer1.o
    0x200007c9   0x00022c38   0x00000003   PAD
    0x200007cc        -       0x00000004   Zero   RW           32    .bss.timer_location  main.o
    0x200007d0        -       0x00000004   Zero   RW           19    .bss.w1             main.o
    0x200007d4        -       0x00000004   Zero   RW           20    .bss.w2             main.o
    0x200007d8        -       0x00000004   Zero   RW          150    .bss.waited         timer1.o
    0x200007dc   0x00022c38   0x00000004   PAD
    0x200007e0        -       0x00000400   Zero   RW            2    HEAP                startup_tm4c123.o
    0x20000be0        -       0x00000400   Zero   RW            1    STACK               startup_tm4c123.o


==============================================================================

Image component sizes


      Code (inc. data)   RO Data    RW Data    ZI Data      Debug   Object Name

       108          0          0          0          0       1621   dac.o
        72          0          0          0          0       2377   fifo.o
      2568         12       8992         53        270       5926   main.o
     11224         56      76326        276       1152      24365   module.o
       138          0          0          0          0       1554   pll.o
        92          0          0          0          4       1732   random.o
       464          0          0          0          0       2838   slidepot.o
       384          0      22978          0          8       2638   sound.o
      7050          4       2142          6         48      13560   st7735.o
       296         22        620          0       2048       5584   startup_tm4c123.o
       652          0          0          0          0       2051   texas.o
       216          0          0          0          4       2012   timer0.o
      2924         40          4         12         22       3777   timer1.o
       176          0          4          0         40       2548   uart.o

    ----------------------------------------------------------------------
     26368        134     111107        352       3612      72583   Object Totals
         0          0         32          0          0          0   (incl. Generated)
         4          0          9          5         16          0   (incl. Padding)

    ----------------------------------------------------------------------

      Code (inc. data)   RO Data    RW Data    ZI Data      Debug   Library Member Name

         8          0          0          0          0         68   __main.o
         0          0          0          0          0          0   __rtentry.o
        12          0          0          0          0          0   __rtentry2.o
         6          0          0          0          0          0   __rtentry4.o
        52          8          0          0          0          0   __scatter.o
        26          0          0          0          0          0   __scatter_copy.o
        28          0          0          0          0          0   __scatter_zi.o
        10          0          0          0          0         68   defsig_exit.o
        50          0          0          0          0         88   defsig_general.o
        80         58          0          0          0         76   defsig_rtmem_inner.o
        14          0          0          0          0         80   defsig_rtmem_outer.o
        18          0          0          0          0         80   exit.o
        94          0          0          0          0         80   h1_alloc.o
        52          0          0          0          0         68   h1_extend.o
        78          0          0          0          0         80   h1_free.o
        14          0          0          0          0         84   h1_init.o
         6          0          0          0          0        152   heapauxi.o
         4          0          0          0          0        136   hguard.o
         0          0          0          0          0          0   indicate_semi.o
        36          8          0          0          0         80   init_aeabi.o
       138          0          0          0          0        168   init_alloc.o
         2          0          0          0          0          0   libinit.o
        14          0          0          0          0          0   libinit2.o
         2          0          0          0          0          0   libshutdown.o
         2          0          0          0          0          0   libshutdown2.o
         8          4          0          0         96         68   libspace.o
         0          0          0          0          0          0   maybetermalloc1.o
         8          4          0          0          0         68   rt_heap_descriptor_intlibspace.o
        78          0          0          0          0         80   rt_memclr_w.o
         2          0          0          0          0          0   rtexit.o
        10          0          0          0          0          0   rtexit2.o
       124          0          0          0          0         88   strcmpv7em.o
        12          4          0          0          0         68   sys_exit.o
        74          0          0          0          0         80   sys_stackheap_outer.o
        14          0          0          0          0         76   sys_wrch.o
         2          0          0          0          0         68   use_no_semi.o
       430          8          0          0          0        168   faddsub_clz.o
       258          4          0          0          0         84   fmul.o
       140          4          0          0          0         84   fnaninf.o
        10          0          0          0          0         68   fretinf.o
         0          0          0          0          0          0   usenofp.o
        50          0          0          0          0        380   new.cpp.o
         0          0          0          0          4          0   cxa_default_handlers.cpp.o
        12          0          0          0          0        132   cxa_handlers.cpp.o
      2234          0        310          0          0       1048   private_typeinfo.cpp.o
         2          0         21          0          0        196   stdlib_typeinfo.cpp.o

    ----------------------------------------------------------------------
      4234        102        331          0        100       4064   Library Totals
        20          0          0          0          0          0   (incl. Padding)

    ----------------------------------------------------------------------

      Code (inc. data)   RO Data    RW Data    ZI Data      Debug   Library Name

      1078         86          0          0         96       1904   c_w.l
       838         16          0          0          0        404   fz_ws.l
        50          0          0          0          0        380   libcpp_w.l
      2248          0        331          0          4       1376   libcppabi_w.l

    ----------------------------------------------------------------------
      4234        102        331          0        100       4064   Library Totals

    ----------------------------------------------------------------------

==============================================================================


      Code (inc. data)   RO Data    RW Data    ZI Data      Debug   

     30602        236     111438        352       3712      75127   Grand Totals
     30602        236     111438        352       3712      75127   ELF Image Totals
     30602        236     111438        352          0          0   ROM Totals

==============================================================================

    Total RO  Size (Code + RO Data)               142040 ( 138.71kB)
    Total RW  Size (RW Data + ZI Data)              4064 (   3.97kB)
    Total ROM Size (Code + RO Data + RW Data)     142392 ( 139.05kB)

==============================================================================

